   1                     ; C Compiler for STM8 (COSMIC Software)
   2                     ; Generator V4.2.4 - 19 Dec 2007
2765                     .const:	section	.text
2766  0000               _images:
2767  0000 0000          	dc.w	_image
2768  0002 0017          	dc.w	_image+23
2769  0004               _led_sizes:
2770  0004 17            	dc.b	23
2771  0005 19            	dc.b	25
2772  0006               _ascii_2:
2773  0006 3e            	dc.b	62
2774  0007 41            	dc.b	65
2775  0008 41            	dc.b	65
2776  0009 41            	dc.b	65
2777  000a 3e            	dc.b	62
2778  000b 00            	dc.b	0
2779  000c 21            	dc.b	33
2780  000d 7f            	dc.b	127
2781  000e 01            	dc.b	1
2782  000f 00            	dc.b	0
2783  0010 21            	dc.b	33
2784  0011 43            	dc.b	67
2785  0012 45            	dc.b	69
2786  0013 49            	dc.b	73
2787  0014 31            	dc.b	49
2788  0015 22            	dc.b	34
2789  0016 41            	dc.b	65
2790  0017 49            	dc.b	73
2791  0018 49            	dc.b	73
2792  0019 36            	dc.b	54
2793  001a 0c            	dc.b	12
2794  001b 14            	dc.b	20
2795  001c 24            	dc.b	36
2796  001d 7f            	dc.b	127
2797  001e 04            	dc.b	4
2798  001f 72            	dc.b	114
2799  0020 51            	dc.b	81
2800  0021 51            	dc.b	81
2801  0022 51            	dc.b	81
2802  0023 4e            	dc.b	78
2803  0024 3e            	dc.b	62
2804  0025 49            	dc.b	73
2805  0026 49            	dc.b	73
2806  0027 49            	dc.b	73
2807  0028 26            	dc.b	38
2808  0029 40            	dc.b	64
2809  002a 40            	dc.b	64
2810  002b 4f            	dc.b	79
2811  002c 50            	dc.b	80
2812  002d 60            	dc.b	96
2813  002e 36            	dc.b	54
2814  002f 49            	dc.b	73
2815  0030 49            	dc.b	73
2816  0031 49            	dc.b	73
2817  0032 36            	dc.b	54
2818  0033 32            	dc.b	50
2819  0034 49            	dc.b	73
2820  0035 49            	dc.b	73
2821  0036 49            	dc.b	73
2822  0037 3e            	dc.b	62
2823  0038 1f            	dc.b	31
2824  0039 28            	dc.b	40
2825  003a 48            	dc.b	72
2826  003b 28            	dc.b	40
2827  003c 1f            	dc.b	31
2828  003d 7f            	dc.b	127
2829  003e 49            	dc.b	73
2830  003f 49            	dc.b	73
2831  0040 49            	dc.b	73
2832  0041 36            	dc.b	54
2833  0042 3e            	dc.b	62
2834  0043 41            	dc.b	65
2835  0044 41            	dc.b	65
2836  0045 41            	dc.b	65
2837  0046 22            	dc.b	34
2838  0047 7f            	dc.b	127
2839  0048 41            	dc.b	65
2840  0049 41            	dc.b	65
2841  004a 41            	dc.b	65
2842  004b 3e            	dc.b	62
2843  004c 3e            	dc.b	62
2844  004d 49            	dc.b	73
2845  004e 49            	dc.b	73
2846  004f 49            	dc.b	73
2847  0050 41            	dc.b	65
2848  0051 3f            	dc.b	63
2849  0052 48            	dc.b	72
2850  0053 48            	dc.b	72
2851  0054 48            	dc.b	72
2852  0055 40            	dc.b	64
2853  0056 3e            	dc.b	62
2854  0057 41            	dc.b	65
2855  0058 49            	dc.b	73
2856  0059 49            	dc.b	73
2857  005a 2e            	dc.b	46
2858  005b 7f            	dc.b	127
2859  005c 08            	dc.b	8
2860  005d 08            	dc.b	8
2861  005e 08            	dc.b	8
2862  005f 7f            	dc.b	127
2863  0060 00            	dc.b	0
2864  0061 41            	dc.b	65
2865  0062 7f            	dc.b	127
2866  0063 41            	dc.b	65
2867  0064 00            	dc.b	0
2868  0065 06            	dc.b	6
2869  0066 01            	dc.b	1
2870  0067 01            	dc.b	1
2871  0068 01            	dc.b	1
2872  0069 7e            	dc.b	126
2873  006a 7f            	dc.b	127
2874  006b 08            	dc.b	8
2875  006c 14            	dc.b	20
2876  006d 22            	dc.b	34
2877  006e 41            	dc.b	65
2878  006f 7e            	dc.b	126
2879  0070 01            	dc.b	1
2880  0071 01            	dc.b	1
2881  0072 01            	dc.b	1
2882  0073 01            	dc.b	1
2883  0074 7f            	dc.b	127
2884  0075 20            	dc.b	32
2885  0076 10            	dc.b	16
2886  0077 20            	dc.b	32
2887  0078 7f            	dc.b	127
2888  0079 7f            	dc.b	127
2889  007a 20            	dc.b	32
2890  007b 10            	dc.b	16
2891  007c 08            	dc.b	8
2892  007d 7f            	dc.b	127
2893  007e 3e            	dc.b	62
2894  007f 41            	dc.b	65
2895  0080 41            	dc.b	65
2896  0081 41            	dc.b	65
2897  0082 3e            	dc.b	62
2898  0083 3f            	dc.b	63
2899  0084 48            	dc.b	72
2900  0085 48            	dc.b	72
2901  0086 48            	dc.b	72
2902  0087 30            	dc.b	48
2903  0088 3c            	dc.b	60
2904  0089 42            	dc.b	66
2905  008a 46            	dc.b	70
2906  008b 43            	dc.b	67
2907  008c 3c            	dc.b	60
2908  008d 3f            	dc.b	63
2909  008e 48            	dc.b	72
2910  008f 4c            	dc.b	76
2911  0090 4a            	dc.b	74
2912  0091 31            	dc.b	49
2913  0092 32            	dc.b	50
2914  0093 49            	dc.b	73
2915  0094 49            	dc.b	73
2916  0095 49            	dc.b	73
2917  0096 26            	dc.b	38
2918  0097 40            	dc.b	64
2919  0098 40            	dc.b	64
2920  0099 7f            	dc.b	127
2921  009a 40            	dc.b	64
2922  009b 40            	dc.b	64
2923  009c 7e            	dc.b	126
2924  009d 01            	dc.b	1
2925  009e 01            	dc.b	1
2926  009f 01            	dc.b	1
2927  00a0 7e            	dc.b	126
2928  00a1 7c            	dc.b	124
2929  00a2 02            	dc.b	2
2930  00a3 01            	dc.b	1
2931  00a4 02            	dc.b	2
2932  00a5 7c            	dc.b	124
2933  00a6 7f            	dc.b	127
2934  00a7 02            	dc.b	2
2935  00a8 0c            	dc.b	12
2936  00a9 02            	dc.b	2
2937  00aa 7f            	dc.b	127
2938  00ab 63            	dc.b	99
2939  00ac 14            	dc.b	20
2940  00ad 08            	dc.b	8
2941  00ae 14            	dc.b	20
2942  00af 63            	dc.b	99
2943  00b0 60            	dc.b	96
2944  00b1 10            	dc.b	16
2945  00b2 0f            	dc.b	15
2946  00b3 10            	dc.b	16
2947  00b4 60            	dc.b	96
2948  00b5 43            	dc.b	67
2949  00b6 45            	dc.b	69
2950  00b7 49            	dc.b	73
2951  00b8 51            	dc.b	81
2952  00b9 61            	dc.b	97
2994                     ; 106 void disp_matrix_all(uchar number)
2994                     ; 107 {
2996                     	switch	.text
2997  0000               _disp_matrix_all:
3001                     ; 108     memset(image, number, LED_IMAGE_SIZE);
3003  0000 ae0030        	ldw	x,#48
3004  0003               L6:
3005  0003 d7ffff        	ld	(_image-1,x),a
3006  0006 5a            	decw	x
3007  0007 26fa          	jrne	L6
3008                     ; 109 }
3011  0009 81            	ret
3118                     ; 117 void disp_text(const uchar* const text, led_location_t ic)
3118                     ; 118 {
3119                     	switch	.text
3120  000a               _disp_text:
3122  000a 89            	pushw	x
3123  000b 5206          	subw	sp,#6
3124       00000006      OFST:	set	6
3127                     ; 121     uchar offset = 0;
3129  000d 0f05          	clr	(OFST-1,sp)
3130                     ; 122     uchar* const ptr0 = images[ic];
3132  000f 7b0b          	ld	a,(OFST+5,sp)
3133  0011 5f            	clrw	x
3134  0012 97            	ld	xl,a
3135  0013 58            	sllw	x
3136  0014 de0000        	ldw	x,(_images,x)
3137  0017 1f01          	ldw	(OFST-5,sp),x
3138                     ; 124     for (ptr = text; *ptr != 0; ptr++)
3140  0019 1e07          	ldw	x,(OFST+1,sp)
3141  001b 1f03          	ldw	(OFST-3,sp),x
3143  001d 202a          	jra	L1602
3144  001f               L5502:
3145                     ; 126         if (*ptr == '.' || *ptr == ':' || *ptr ==' ')
3147  001f 1e03          	ldw	x,(OFST-3,sp)
3148  0021 f6            	ld	a,(x)
3149  0022 a12e          	cp	a,#46
3150  0024 270e          	jreq	L7602
3152  0026 1e03          	ldw	x,(OFST-3,sp)
3153  0028 f6            	ld	a,(x)
3154  0029 a13a          	cp	a,#58
3155  002b 2707          	jreq	L7602
3157  002d 1e03          	ldw	x,(OFST-3,sp)
3158  002f f6            	ld	a,(x)
3159  0030 a120          	cp	a,#32
3160  0032 260d          	jrne	L5602
3161  0034               L7602:
3162                     ; 128             offset += 2;
3164  0034 0c05          	inc	(OFST-1,sp)
3165  0036 0c05          	inc	(OFST-1,sp)
3167  0038               L3702:
3168                     ; 124     for (ptr = text; *ptr != 0; ptr++)
3170  0038 1e03          	ldw	x,(OFST-3,sp)
3171  003a 1c0001        	addw	x,#1
3172  003d 1f03          	ldw	(OFST-3,sp),x
3173  003f 2008          	jra	L1602
3174  0041               L5602:
3175                     ; 132             offset += 6;
3177  0041 7b05          	ld	a,(OFST-1,sp)
3178  0043 ab06          	add	a,#6
3179  0045 6b05          	ld	(OFST-1,sp),a
3180  0047 20ef          	jra	L3702
3181  0049               L1602:
3182                     ; 124     for (ptr = text; *ptr != 0; ptr++)
3184  0049 1e03          	ldw	x,(OFST-3,sp)
3185  004b 7d            	tnz	(x)
3186  004c 26d1          	jrne	L5502
3187                     ; 135     offset--;
3189  004e 0a05          	dec	(OFST-1,sp)
3190                     ; 137     offset = (led_sizes[ic] - offset) >> 1;
3192  0050 7b0b          	ld	a,(OFST+5,sp)
3193  0052 5f            	clrw	x
3194  0053 97            	ld	xl,a
3195  0054 d60004        	ld	a,(_led_sizes,x)
3196  0057 5f            	clrw	x
3197  0058 1005          	sub	a,(OFST-1,sp)
3198  005a 2401          	jrnc	L21
3199  005c 5a            	decw	x
3200  005d               L21:
3201  005d 02            	rlwa	x,a
3202  005e 57            	sraw	x
3203  005f 01            	rrwa	x,a
3204  0060 6b05          	ld	(OFST-1,sp),a
3205  0062 02            	rlwa	x,a
3206                     ; 139     for (ptr = text; *ptr != 0; ptr++)
3208  0063 1e07          	ldw	x,(OFST+1,sp)
3209  0065 1f03          	ldw	(OFST-3,sp),x
3211  0067 ac120112      	jpf	L1012
3212  006b               L5702:
3213                     ; 141         c = *ptr;
3215  006b 1e03          	ldw	x,(OFST-3,sp)
3216  006d f6            	ld	a,(x)
3217  006e 6b06          	ld	(OFST+0,sp),a
3218                     ; 142         if (c == '.')
3220  0070 7b06          	ld	a,(OFST+0,sp)
3221  0072 a12e          	cp	a,#46
3222  0074 2615          	jrne	L5012
3223                     ; 144             ptr0[offset] = 0x01;
3225  0076 7b01          	ld	a,(OFST-5,sp)
3226  0078 97            	ld	xl,a
3227  0079 7b02          	ld	a,(OFST-4,sp)
3228  007b 1b05          	add	a,(OFST-1,sp)
3229  007d 2401          	jrnc	L41
3230  007f 5c            	incw	x
3231  0080               L41:
3232  0080 02            	rlwa	x,a
3233  0081 a601          	ld	a,#1
3234  0083 f7            	ld	(x),a
3235                     ; 145             offset += 2;
3237  0084 0c05          	inc	(OFST-1,sp)
3238  0086 0c05          	inc	(OFST-1,sp)
3239                     ; 146             continue;
3241  0088 cc010b        	jra	L7702
3242  008b               L5012:
3243                     ; 148         else if (c == ':')
3245  008b 7b06          	ld	a,(OFST+0,sp)
3246  008d a13a          	cp	a,#58
3247  008f 2614          	jrne	L1112
3248                     ; 150             ptr0[offset] = 0x14;
3250  0091 7b01          	ld	a,(OFST-5,sp)
3251  0093 97            	ld	xl,a
3252  0094 7b02          	ld	a,(OFST-4,sp)
3253  0096 1b05          	add	a,(OFST-1,sp)
3254  0098 2401          	jrnc	L61
3255  009a 5c            	incw	x
3256  009b               L61:
3257  009b 02            	rlwa	x,a
3258  009c a614          	ld	a,#20
3259  009e f7            	ld	(x),a
3260                     ; 151             offset += 2;
3262  009f 0c05          	inc	(OFST-1,sp)
3263  00a1 0c05          	inc	(OFST-1,sp)
3264                     ; 152             continue;
3266  00a3 2066          	jra	L7702
3267  00a5               L1112:
3268                     ; 154         else if (c == ' ')
3270  00a5 7b06          	ld	a,(OFST+0,sp)
3271  00a7 a120          	cp	a,#32
3272  00a9 2612          	jrne	L7012
3273                     ; 156             ptr0[offset] = 0x00;
3275  00ab 7b01          	ld	a,(OFST-5,sp)
3276  00ad 97            	ld	xl,a
3277  00ae 7b02          	ld	a,(OFST-4,sp)
3278  00b0 1b05          	add	a,(OFST-1,sp)
3279  00b2 2401          	jrnc	L02
3280  00b4 5c            	incw	x
3281  00b5               L02:
3282  00b5 02            	rlwa	x,a
3283  00b6 7f            	clr	(x)
3284                     ; 157             offset += 2;
3286  00b7 0c05          	inc	(OFST-1,sp)
3287  00b9 0c05          	inc	(OFST-1,sp)
3288                     ; 158             continue;
3290  00bb 204e          	jra	L7702
3291  00bd               L7012:
3292                     ; 160         if (c >= 'A' && c <= 'Z')
3294  00bd 7b06          	ld	a,(OFST+0,sp)
3295  00bf a141          	cp	a,#65
3296  00c1 250e          	jrult	L7112
3298  00c3 7b06          	ld	a,(OFST+0,sp)
3299  00c5 a15b          	cp	a,#91
3300  00c7 2408          	jruge	L7112
3301                     ; 161             c = c - 'A' + 10;
3303  00c9 7b06          	ld	a,(OFST+0,sp)
3304  00cb a037          	sub	a,#55
3305  00cd 6b06          	ld	(OFST+0,sp),a
3307  00cf 2012          	jra	L1212
3308  00d1               L7112:
3309                     ; 164         else if (c >= '0' && c <= '9')
3311  00d1 7b06          	ld	a,(OFST+0,sp)
3312  00d3 a130          	cp	a,#48
3313  00d5 2534          	jrult	L7702
3315  00d7 7b06          	ld	a,(OFST+0,sp)
3316  00d9 a13a          	cp	a,#58
3317  00db 242e          	jruge	L7702
3318                     ; 165             c = c - '0';
3320  00dd 7b06          	ld	a,(OFST+0,sp)
3321  00df a030          	sub	a,#48
3322  00e1 6b06          	ld	(OFST+0,sp),a
3324  00e3               L1212:
3325                     ; 169         memcpy(images[ic] + offset, ascii_2[c], 5);
3327  00e3 ae0005        	ldw	x,#5
3328  00e6 89            	pushw	x
3329  00e7 7b08          	ld	a,(OFST+2,sp)
3330  00e9 97            	ld	xl,a
3331  00ea a605          	ld	a,#5
3332  00ec 42            	mul	x,a
3333  00ed 1c0006        	addw	x,#_ascii_2
3334  00f0 89            	pushw	x
3335  00f1 7b0f          	ld	a,(OFST+9,sp)
3336  00f3 5f            	clrw	x
3337  00f4 97            	ld	xl,a
3338  00f5 58            	sllw	x
3339  00f6 de0000        	ldw	x,(_images,x)
3340  00f9 01            	rrwa	x,a
3341  00fa 1b09          	add	a,(OFST+3,sp)
3342  00fc 2401          	jrnc	L22
3343  00fe 5c            	incw	x
3344  00ff               L22:
3345  00ff 02            	rlwa	x,a
3346  0100 cd0000        	call	_memcpy
3348  0103 5b04          	addw	sp,#4
3349                     ; 171         offset += 6;
3351  0105 7b05          	ld	a,(OFST-1,sp)
3352  0107 ab06          	add	a,#6
3353  0109 6b05          	ld	(OFST-1,sp),a
3354  010b               L7702:
3355                     ; 139     for (ptr = text; *ptr != 0; ptr++)
3357  010b 1e03          	ldw	x,(OFST-3,sp)
3358  010d 1c0001        	addw	x,#1
3359  0110 1f03          	ldw	(OFST-3,sp),x
3360  0112               L1012:
3363  0112 1e03          	ldw	x,(OFST-3,sp)
3364  0114 7d            	tnz	(x)
3365  0115 2703          	jreq	L42
3366  0117 cc006b        	jp	L5702
3367  011a               L42:
3368                     ; 173 }
3371  011a 5b08          	addw	sp,#8
3372  011c 81            	ret
3417                     ; 177 void disp_1f(const uint num, const led_location_t ic)
3417                     ; 178 {
3418                     	switch	.text
3419  011d               _disp_1f:
3421  011d 89            	pushw	x
3422       00000000      OFST:	set	0
3425                     ; 179     disp_custom(ic, "%d.%d", num / 10, num % 10);
3427  011e a60a          	ld	a,#10
3428  0120 62            	div	x,a
3429  0121 5f            	clrw	x
3430  0122 97            	ld	xl,a
3431  0123 89            	pushw	x
3432  0124 1e03          	ldw	x,(OFST+3,sp)
3433  0126 a60a          	ld	a,#10
3434  0128 62            	div	x,a
3435  0129 89            	pushw	x
3436  012a ae00cd        	ldw	x,#L3512
3437  012d 89            	pushw	x
3438  012e 7b0b          	ld	a,(OFST+11,sp)
3439  0130 ad3c          	call	_disp_custom
3441  0132 5b06          	addw	sp,#6
3442                     ; 180 }
3445  0134 85            	popw	x
3446  0135 81            	ret
3491                     ; 182 void disp_2f(const uint num, const led_location_t ic)
3491                     ; 183 {
3492                     	switch	.text
3493  0136               _disp_2f:
3495  0136 89            	pushw	x
3496       00000000      OFST:	set	0
3499                     ; 184     disp_custom(ic, "%d.%02d", num / 100, num % 100);
3501  0137 a664          	ld	a,#100
3502  0139 62            	div	x,a
3503  013a 5f            	clrw	x
3504  013b 97            	ld	xl,a
3505  013c 89            	pushw	x
3506  013d 1e03          	ldw	x,(OFST+3,sp)
3507  013f a664          	ld	a,#100
3508  0141 62            	div	x,a
3509  0142 89            	pushw	x
3510  0143 ae00c5        	ldw	x,#L7712
3511  0146 89            	pushw	x
3512  0147 7b0b          	ld	a,(OFST+11,sp)
3513  0149 ad23          	call	_disp_custom
3515  014b 5b06          	addw	sp,#6
3516                     ; 185 }
3519  014d 85            	popw	x
3520  014e 81            	ret
3565                     ; 187 void disp_d(const uint num, const led_location_t ic)
3565                     ; 188 {
3566                     	switch	.text
3567  014f               _disp_d:
3569  014f 89            	pushw	x
3570       00000000      OFST:	set	0
3573                     ; 189     disp_custom(ic, "%d", num);
3575  0150 89            	pushw	x
3576  0151 ae00c2        	ldw	x,#L3222
3577  0154 89            	pushw	x
3578  0155 7b09          	ld	a,(OFST+9,sp)
3579  0157 ad15          	call	_disp_custom
3581  0159 5b04          	addw	sp,#4
3582                     ; 190 }
3585  015b 85            	popw	x
3586  015c 81            	ret
3631                     ; 192 void disp_ld(const ulong num, const led_location_t ic)
3631                     ; 193 {
3632                     	switch	.text
3633  015d               _disp_ld:
3635       00000000      OFST:	set	0
3638                     ; 194     disp_custom(ic, "%ld", num);
3640  015d 1e05          	ldw	x,(OFST+5,sp)
3641  015f 89            	pushw	x
3642  0160 1e05          	ldw	x,(OFST+5,sp)
3643  0162 89            	pushw	x
3644  0163 ae00be        	ldw	x,#L7422
3645  0166 89            	pushw	x
3646  0167 7b0d          	ld	a,(OFST+13,sp)
3647  0169 ad03          	call	_disp_custom
3649  016b 5b06          	addw	sp,#6
3650                     ; 195 }
3653  016d 81            	ret
3711                     ; 197 void disp_custom(const led_location_t ic, char* format, ...)
3711                     ; 198 {
3712                     	switch	.text
3713  016e               _disp_custom:
3715  016e 88            	push	a
3716  016f 89            	pushw	x
3717       00000002      OFST:	set	2
3720                     ; 200     va_start(ap, format);
3722  0170 96            	ldw	x,sp
3723  0171 1c0008        	addw	x,#OFST+6
3724  0174 1f01          	ldw	(OFST-1,sp),x
3725                     ; 201     vsprintf(_text, format, ap);
3727  0176 96            	ldw	x,sp
3728  0177 1c0008        	addw	x,#OFST+6
3729  017a 89            	pushw	x
3730  017b 1e08          	ldw	x,(OFST+6,sp)
3731  017d 89            	pushw	x
3732  017e ae0000        	ldw	x,#L7212__text
3733  0181 cd0000        	call	_vsprintf
3735  0184 5b04          	addw	sp,#4
3736                     ; 202     va_end(ap);
3738  0186 1e01          	ldw	x,(OFST-1,sp)
3739                     ; 203     disp_text(_text, ic);
3741  0188 7b03          	ld	a,(OFST+1,sp)
3742  018a 88            	push	a
3743  018b ae0000        	ldw	x,#L7212__text
3744  018e cd000a        	call	_disp_text
3746  0191 84            	pop	a
3747                     ; 204 }
3750  0192 5b03          	addw	sp,#3
3751  0194 81            	ret
3799                     ; 207 void disp_matrix(const uchar* const lib_text, const led_location_t ic)
3799                     ; 208 {
3800                     	switch	.text
3801  0195               _disp_matrix:
3803  0195 89            	pushw	x
3804       00000000      OFST:	set	0
3807                     ; 209     memcpy(images[ic], lib_text, led_sizes[ic]);
3809  0196 7b05          	ld	a,(OFST+5,sp)
3810  0198 5f            	clrw	x
3811  0199 97            	ld	xl,a
3812  019a 58            	sllw	x
3813  019b de0000        	ldw	x,(_images,x)
3814  019e bf00          	ldw	c_x,x
3815  01a0 1601          	ldw	y,(OFST+1,sp)
3816  01a2 90bf00        	ldw	c_y,y
3817  01a5 7b05          	ld	a,(OFST+5,sp)
3818  01a7 5f            	clrw	x
3819  01a8 97            	ld	xl,a
3820  01a9 d60004        	ld	a,(_led_sizes,x)
3821  01ac 5f            	clrw	x
3822  01ad 97            	ld	xl,a
3823  01ae               L24:
3824  01ae 5a            	decw	x
3825  01af 92d600        	ld	a,([c_y.w],x)
3826  01b2 92d700        	ld	([c_x.w],x),a
3827  01b5 5d            	tnzw	x
3828  01b6 26f6          	jrne	L24
3829                     ; 210 }
3832  01b8 85            	popw	x
3833  01b9 81            	ret
3887                     	switch	.const
3888  00ba               L64:
3889  00ba 00000005      	dc.l	5
3890                     ; 212 void disp_alternant_net(const uint on_ms, const uint off_ms)
3890                     ; 213 {
3891                     	switch	.text
3892  01ba               _disp_alternant_net:
3894  01ba 89            	pushw	x
3895  01bb 5206          	subw	sp,#6
3896       00000006      OFST:	set	6
3899                     ; 214     uint temp = (clock() / CLOCKS_PER_MS) % (on_ms + off_ms);
3901  01bd 72fb0b        	addw	x,(OFST+5,sp)
3902  01c0 cd0000        	call	c_uitolx
3904  01c3 96            	ldw	x,sp
3905  01c4 1c0001        	addw	x,#OFST-5
3906  01c7 cd0000        	call	c_rtol
3908  01ca cd0000        	call	_clock
3910  01cd ae00ba        	ldw	x,#L64
3911  01d0 cd0000        	call	c_ludv
3913  01d3 96            	ldw	x,sp
3914  01d4 1c0001        	addw	x,#OFST-5
3915  01d7 cd0000        	call	c_lumd
3917  01da be02          	ldw	x,c_lreg+2
3918  01dc 1f05          	ldw	(OFST-1,sp),x
3919                     ; 215     if (temp < on_ms)
3921  01de 1e05          	ldw	x,(OFST-1,sp)
3922  01e0 1307          	cpw	x,(OFST+1,sp)
3923  01e2 2406          	jruge	L7432
3924                     ; 216         SET_LED_NET;
3926  01e4 72155000      	bres	_PA_ODR,#2
3928  01e8 2004          	jra	L1532
3929  01ea               L7432:
3930                     ; 218         CLEAR_LED_NET;
3932  01ea 72145000      	bset	_PA_ODR,#2
3933  01ee               L1532:
3934                     ; 219 }
3937  01ee 5b08          	addw	sp,#8
3938  01f0 81            	ret
4011                     ; 221 void disp_alternant2_net(const uint on_ms1, const uint off_ms1, const uint on_ms2, const uint off_ms2)
4011                     ; 222 {
4012                     	switch	.text
4013  01f1               _disp_alternant2_net:
4015  01f1 89            	pushw	x
4016  01f2 5206          	subw	sp,#6
4017       00000006      OFST:	set	6
4020                     ; 223     uint temp = (clock() / CLOCKS_PER_MS) % (on_ms1 + off_ms2 + on_ms2 + off_ms2);
4022  01f4 72fb0f        	addw	x,(OFST+9,sp)
4023  01f7 72fb0d        	addw	x,(OFST+7,sp)
4024  01fa 72fb0f        	addw	x,(OFST+9,sp)
4025  01fd cd0000        	call	c_uitolx
4027  0200 96            	ldw	x,sp
4028  0201 1c0001        	addw	x,#OFST-5
4029  0204 cd0000        	call	c_rtol
4031  0207 cd0000        	call	_clock
4033  020a ae00ba        	ldw	x,#L64
4034  020d cd0000        	call	c_ludv
4036  0210 96            	ldw	x,sp
4037  0211 1c0001        	addw	x,#OFST-5
4038  0214 cd0000        	call	c_lumd
4040  0217 be02          	ldw	x,c_lreg+2
4041  0219 1f05          	ldw	(OFST-1,sp),x
4042                     ; 224     if (temp < on_ms1 || (temp >= on_ms1 + off_ms1 && temp < on_ms1 + off_ms1 + on_ms2))
4044  021b 1e05          	ldw	x,(OFST-1,sp)
4045  021d 1307          	cpw	x,(OFST+1,sp)
4046  021f 2515          	jrult	L3142
4048  0221 1e07          	ldw	x,(OFST+1,sp)
4049  0223 72fb0b        	addw	x,(OFST+5,sp)
4050  0226 1305          	cpw	x,(OFST-1,sp)
4051  0228 2213          	jrugt	L1142
4053  022a 1e07          	ldw	x,(OFST+1,sp)
4054  022c 72fb0b        	addw	x,(OFST+5,sp)
4055  022f 72fb0d        	addw	x,(OFST+7,sp)
4056  0232 1305          	cpw	x,(OFST-1,sp)
4057  0234 2307          	jrule	L1142
4058  0236               L3142:
4059                     ; 225         SET_LED_NET;
4061  0236 72155000      	bres	_PA_ODR,#2
4063  023a               L5142:
4064                     ; 228 }
4067  023a 5b08          	addw	sp,#8
4068  023c 81            	ret
4069  023d               L1142:
4070                     ; 227         CLEAR_LED_NET;
4072  023d 72145000      	bset	_PA_ODR,#2
4073  0241 20f7          	jra	L5142
4149                     	switch	.ubsct
4150  0000               L7212__text:
4151  0000 000000000000  	ds.b	6
4152                     	xdef	_ascii_2
4153                     	xdef	_led_sizes
4154  0006               _ram_d6:
4155  0006 00            	ds.b	1
4156                     	xdef	_ram_d6
4157                     	xref	_clock
4158                     	xdef	_disp_alternant2_net
4159                     	xdef	_disp_alternant_net
4160                     	xdef	_disp_custom
4161                     	xdef	_disp_ld
4162                     	xdef	_disp_d
4163                     	xdef	_disp_2f
4164                     	xdef	_disp_1f
4165                     	xdef	_disp_text
4166                     	xdef	_disp_matrix
4167                     	xdef	_disp_matrix_all
4168                     	xdef	_images
4169                     	switch	.bss
4170  0000               _image:
4171  0000 000000000000  	ds.b	48
4172                     	xdef	_image
4173                     	xref	_vsprintf
4174                     	xref	_memset
4175                     	xref	_memcpy
4176                     	switch	.const
4177  00be               L7422:
4178  00be 256c6400      	dc.b	"%ld",0
4179  00c2               L3222:
4180  00c2 256400        	dc.b	"%d",0
4181  00c5               L7712:
4182  00c5 25642e253032  	dc.b	"%d.%02d",0
4183  00cd               L3512:
4184  00cd 25642e256400  	dc.b	"%d.%d",0
4185                     	xref.b	c_lreg
4186                     	xref.b	c_x
4187                     	xref.b	c_y
4207                     	xref	c_lumd
4208                     	xref	c_rtol
4209                     	xref	c_uitolx
4210                     	xref	c_ludv
4211                     	end
