BL51 BANKED LINKER/LOCATER V6.22.2.0                                                    07/13/2018  15:19:21  PAGE 1


BL51 BANKED LINKER/LOCATER V6.22.2.0, INVOKED BY:
D:\KEIL_V5\C51\BIN\BL51.EXE .\Objects\STARTUP.obj, .\Objects\commu.obj, .\Objects\displaydriver.obj, .\Objects\ini.obj, 
>> .\Objects\main.obj, .\Objects\beep.obj, .\Objects\control.obj, .\Objects\eeprom.obj, .\Objects\error.obj, .\Objects\f
>> actory.obj, .\Objects\fan.obj, .\Objects\image.obj, .\Objects\key.obj, .\Objects\miwifi.obj, .\Objects\motion.obj, .\
>> Objects\program.obj, .\Objects\rc.obj, .\Objects\run_mode.obj, .\Objects\sensor.obj, .\Objects\time.obj TO .\Objects\
>> walkingpad PRINT (.\Listings\walkingpad.m51) RAMSIZE (256) CODE (0X0000-0XFFFF) XDATA (0X0000-0X07FF)


MEMORY MODEL: LARGE WITH FLOATING POINT ARITHMETIC


INPUT MODULES INCLUDED:
  .\Objects\STARTUP.obj (?C_STARTUP)
  .\Objects\commu.obj (COMMU)
  .\Objects\displaydriver.obj (DISPLAYDRIVER)
  .\Objects\ini.obj (INI)
  .\Objects\main.obj (MAIN)
  .\Objects\beep.obj (BEEP)
  .\Objects\control.obj (CONTROL)
  .\Objects\eeprom.obj (EEPROM)
  .\Objects\error.obj (ERROR)
  .\Objects\factory.obj (FACTORY)
  .\Objects\fan.obj (FAN)
  .\Objects\image.obj (IMAGE)
  .\Objects\key.obj (KEY)
  .\Objects\miwifi.obj (MIWIFI)
  .\Objects\motion.obj (MOTION)
  .\Objects\program.obj (PROGRAM)
  .\Objects\rc.obj (RC)
  .\Objects\run_mode.obj (RUN_MODE)
  .\Objects\sensor.obj (SENSOR)
  .\Objects\time.obj (TIME)
  D:\KEIL_V5\C51\LIB\C51FPL.LIB (?C?FPADD)
  D:\KEIL_V5\C51\LIB\C51FPL.LIB (?C?FPCMP)
  D:\KEIL_V5\C51\LIB\C51FPL.LIB (?C?FCAST)
  D:\KEIL_V5\C51\LIB\C51FPL.LIB (?C?CASTF)
  D:\KEIL_V5\C51\LIB\C51FPL.LIB (PRINTF)
  D:\KEIL_V5\C51\LIB\C51FPL.LIB (VSPRINTF)
  D:\KEIL_V5\C51\LIB\C51FPL.LIB (?C?FPGETOPN)
  D:\KEIL_V5\C51\LIB\C51FPL.LIB (?C?FPROUND)
  D:\KEIL_V5\C51\LIB\C51FPL.LIB (?C?FPCONVERT)
  D:\KEIL_V5\C51\LIB\C51FPL.LIB (?C?FPMUL)
  D:\KEIL_V5\C51\LIB\C51FPL.LIB (?C?FPDIV)
  D:\KEIL_V5\C51\LIB\C51FPL.LIB (?C?FTNPWR)
  D:\KEIL_V5\C51\LIB\C51L.LIB (?C_INIT)
  D:\KEIL_V5\C51\LIB\C51L.LIB (?C?COPY)
  D:\KEIL_V5\C51\LIB\C51L.LIB (?C?CLDPTR)
  D:\KEIL_V5\C51\LIB\C51L.LIB (?C?CLDOPTR)
  D:\KEIL_V5\C51\LIB\C51L.LIB (?C?CSTPTR)
  D:\KEIL_V5\C51\LIB\C51L.LIB (?C?CSTOPTR)
  D:\KEIL_V5\C51\LIB\C51L.LIB (?C?IMUL)
  D:\KEIL_V5\C51\LIB\C51L.LIB (?C?UIDIV)
  D:\KEIL_V5\C51\LIB\C51L.LIB (?C?IILDX)
  D:\KEIL_V5\C51\LIB\C51L.LIB (?C?LMUL)
  D:\KEIL_V5\C51\LIB\C51L.LIB (?C?ULDIV)
  D:\KEIL_V5\C51\LIB\C51L.LIB (?C?SLDIV)
  D:\KEIL_V5\C51\LIB\C51L.LIB (?C?LNEG)
  D:\KEIL_V5\C51\LIB\C51L.LIB (?C?SLCMP)
BL51 BANKED LINKER/LOCATER V6.22.2.0                                                  07/13/2018  15:19:21  PAGE 2


  D:\KEIL_V5\C51\LIB\C51L.LIB (?C?ULCMP)
  D:\KEIL_V5\C51\LIB\C51L.LIB (?C?ULSHR)
  D:\KEIL_V5\C51\LIB\C51L.LIB (?C?LSHL)
  D:\KEIL_V5\C51\LIB\C51L.LIB (?C?LSTXDATA)
  D:\KEIL_V5\C51\LIB\C51L.LIB (?C?LSTKXDATA)
  D:\KEIL_V5\C51\LIB\C51L.LIB (?C?PLDIXDATA)
  D:\KEIL_V5\C51\LIB\C51L.LIB (?C?PSTXDATA)
  D:\KEIL_V5\C51\LIB\C51L.LIB (?C?CCASE)
  D:\KEIL_V5\C51\LIB\C51L.LIB (?C?ICASE)
  D:\KEIL_V5\C51\LIB\C51L.LIB (?C?LIMUL)
  D:\KEIL_V5\C51\LIB\C51L.LIB (PUTCHAR)
  D:\KEIL_V5\C51\LIB\C51L.LIB (ISDIGIT)
  D:\KEIL_V5\C51\LIB\C51L.LIB (STRNCMP)
  D:\KEIL_V5\C51\LIB\C51L.LIB (?C?STRCPY)
  D:\KEIL_V5\C51\LIB\C51L.LIB (STRLEN)
  D:\KEIL_V5\C51\LIB\C51L.LIB (STRCHR)
  D:\KEIL_V5\C51\LIB\C51L.LIB (STRSTR)
  D:\KEIL_V5\C51\LIB\C51L.LIB (ATOL)
  D:\KEIL_V5\C51\LIB\C51L.LIB (ATOI)
  D:\KEIL_V5\C51\LIB\C51L.LIB (?C?MEMSET)
  D:\KEIL_V5\C51\LIB\C51L.LIB (?C?ILDIX)
  D:\KEIL_V5\C51\LIB\C51L.LIB (ISSPACE)


LINK MAP OF MODULE:  .\Objects\walkingpad (?C_STARTUP)


            TYPE    BASE      LENGTH    RELOCATION   SEGMENT NAME
            -----------------------------------------------------

            * * * * * * *   D A T A   M E M O R Y   * * * * * * *
            REG     0000H     0008H     ABSOLUTE     "REG BANK 0"
            DATA    0008H     0005H     UNIT         _DATA_GROUP_
                    000DH     0013H                  *** GAP ***
            BIT     0020H.0   0001H.1   UNIT         _BIT_GROUP_
            BIT     0021H.1   0001H.0   UNIT         ?BI?MAIN
            BIT     0022H.1   0000H.3   UNIT         ?BI?MOTION
            BIT     0022H.4   0000H.2   UNIT         ?BI?BEEP
            BIT     0022H.6   0000H.2   UNIT         ?BI?KEY
            BIT     0023H.0   0000H.2   UNIT         ?BI?MIWIFI
            BIT     0023H.2   0000H.1   UNIT         ?BI?COMMU
            BIT     0023H.3   0000H.1   UNIT         ?BI?CONTROL
            BIT     0023H.4   0000H.1   UNIT         ?BI?ERROR
            BIT     0023H.5   0000H.1   UNIT         ?BI?FACTORY
            BIT     0023H.6   0000H.1   UNIT         ?BI?RC
            BIT     0023H.7   0000H.1   UNIT         ?BI?SENSOR
            IDATA   0024H     0001H     UNIT         ?STACK

            * * * * * * *  X D A T A   M E M O R Y  * * * * * * *
            XDATA   0000H     016EH     UNIT         ?XD?MIWIFI
            XDATA   016EH     0080H     UNIT         ?XD?EEPROM
            XDATA   01EEH     006EH     UNIT         _XDATA_GROUP_
            XDATA   025CH     006BH     UNIT         ?XD?SENSOR
            XDATA   02C7H     0060H     UNIT         ?XD?MAIN
            XDATA   0327H     003CH     UNIT         ?XD?IMAGE
            XDATA   0363H     0035H     UNIT         ?XD?RUN_MODE
            XDATA   0398H     0020H     UNIT         ?XD?ERROR
BL51 BANKED LINKER/LOCATER V6.22.2.0                                                  07/13/2018  15:19:21  PAGE 3


            XDATA   03B8H     0014H     UNIT         ?XD?RC
            XDATA   03CCH     000FH     UNIT         ?XD?CONTROL
            XDATA   03DBH     000BH     UNIT         ?XD?MOTION
            XDATA   03E6H     0009H     UNIT         ?XD?KEY
            XDATA   03EFH     0008H     UNIT         ?XD?TIME
            XDATA   03F7H     0004H     UNIT         ?XD?COMMU
            XDATA   03FBH     0004H     UNIT         ?XD?BEEP
            XDATA   03FFH     0002H     UNIT         ?XD?FACTORY

            * * * * * * *   C O D E   M E M O R Y   * * * * * * *
            CODE    0000H     0003H     ABSOLUTE     
            CODE    0003H     0008H     UNIT         ?PR?_BEEP?BEEP
            CODE    000BH     0003H     ABSOLUTE     
            CODE    000EH     0004H     UNIT         ?PR?FEED_WDG?INI
                    0012H     0001H                  *** GAP ***
            CODE    0013H     0003H     ABSOLUTE     
                    0016H     0005H                  *** GAP ***
            CODE    001BH     0003H     ABSOLUTE     
                    001EH     0005H                  *** GAP ***
            CODE    0023H     0003H     ABSOLUTE     
            CODE    0026H     0015H     UNIT         ?PR?_GOTO_STATE?MOTION
            CODE    003BH     0003H     ABSOLUTE     
            CODE    003EH     2071H     UNIT         ?PR?COMMU_WIFI?MIWIFI
            CODE    20AFH     0AF5H     UNIT         ?C?LIB_CODE
            CODE    2BA4H     06B3H     UNIT         ?PR?USERCONSUMEROPERATION?MOTION
            CODE    3257H     0698H     UNIT         ?PR?USERCONSUMERDISPLAY?MOTION
            CODE    38EFH     0483H     UNIT         ?PR?PRINTF?PRINTF
            CODE    3D72H     0404H     UNIT         ?PR?DETECT_ERROR?ERROR
            CODE    4176H     038BH     UNIT         ?CO?MIWIFI
            CODE    4501H     02E8H     UNIT         ?PR?RUN_AUTO?RUN_MODE
            CODE    47E9H     02CAH     UNIT         ?PR?FACTORYTESTOPERATION?FACTORY
            CODE    4AB3H     02BFH     UNIT         ?PR?INT1_RPT?RC
            CODE    4D72H     02BEH     UNIT         ?PR?HX711_WEIGHT?SENSOR
            CODE    5030H     028FH     UNIT         ?PR?ADJUST_DRIFT?SENSOR
            CODE    52BFH     027AH     UNIT         ?PR?COMMU?COMMU
            CODE    5539H     022EH     UNIT         ?PR?USERCONSUMERKEYS?MOTION
            CODE    5767H     0229H     UNIT         ?PR?CALC_DISCONNECT?SENSOR
            CODE    5990H     01EAH     UNIT         ?PR?DO_DRIFT?SENSOR
            CODE    5B7AH     01BDH     UNIT         ?PR?PROGMODEKEYS?PROGRAM
            CODE    5D37H     01B7H     UNIT         ?PR?PREPARE_STATISTIC_DATA?CONTROL
            CODE    5EEEH     01A7H     UNIT         ?PR?_DISP_TEXT?IMAGE
            CODE    6095H     01A5H     UNIT         ?PR?_GET_MEDIAN?SENSOR
            CODE    623AH     0164H     UNIT         ?PR?UART2_RPT?COMMU
            CODE    639EH     0150H     UNIT         ?PR?EEPROM_READ?EEPROM
            CODE    64EEH     0130H     UNIT         ?PR?_PROCESS_NET_STATE?MIWIFI
            CODE    661EH     0123H     UNIT         ?PR?FACTORYTESTKEYS?FACTORY
            CODE    6741H     011CH     UNIT         ?PR?RUN_FIXED?RUN_MODE
            CODE    685DH     010EH     UNIT         ?PR?DIST_CALCULATION?CONTROL
            CODE    696BH     010CH     UNIT         ?PR?_ATOL?ATOL
            CODE    6A77H     00F9H     UNIT         ?PR?KEY_SCAN?KEY
            CODE    6B70H     00F4H     UNIT         ?PR?DISPLAYDRIVERPROCESSLED?DISPLAYDRIVER
            CODE    6C64H     00E4H     UNIT         ?PR?_PARSE_SPEED?MIWIFI
            CODE    6D48H     00DBH     UNIT         ?PR?_ATOI?ATOI
            CODE    6E23H     00D3H     UNIT         ?C_INITSEG
            CODE    6EF6H     00CBH     UNIT         ?CO?IMAGE
            CODE    6FC1H     00C9H     UNIT         ?PR?INIT_PARAMS?INI
            CODE    708AH     00C4H     UNIT         ?CO?MOTION
BL51 BANKED LINKER/LOCATER V6.22.2.0                                                  07/13/2018  15:19:21  PAGE 4


            CODE    714EH     00BFH     UNIT         ?PR?_STRSTR?STRSTR
            CODE    720DH     00B1H     UNIT         ?PR?BUZZCON?BEEP
            CODE    72BEH     00A2H     UNIT         ?PR?_DISP_ALTERNANT2_NET?IMAGE
            CODE    7360H     009AH     UNIT         ?C_C51STARTUP
            CODE    73FAH     0093H     UNIT         ?PR?UART1_RPT?MIWIFI
            CODE    748DH     0093H     UNIT         ?PR?RUN_NEW?RUN_MODE
            CODE    7520H     0090H     UNIT         ?PR?HX711_READ1?SENSOR
            CODE    75B0H     0090H     UNIT         ?PR?HX711_READ2?SENSOR
            CODE    7640H     008BH     UNIT         ?PR?GET_STORE_TIME?MIWIFI
            CODE    76CBH     0087H     UNIT         ?PR?_STRNCMP?STRNCMP
            CODE    7752H     007EH     UNIT         ?PR?RESET_DATA?CONTROL
            CODE    77D0H     007AH     UNIT         ?PR?SET_RUNMODE_LED?MOTION
            CODE    784AH     0077H     UNIT         ?PR?_EEPROM_WRCHAR?EEPROM
            CODE    78C1H     0076H     UNIT         ?PR?_INITIALUART2?INI
            CODE    7937H     0075H     UNIT         ?PR?EEPROM_FACTORY?EEPROM
            CODE    79ACH     0070H     UNIT         ?PR?TIMER0_RPT?RC
            CODE    7A1CH     006FH     UNIT         ?PR?SAVE_TOTAL_DISTANCE?CONTROL
            CODE    7A8BH     006FH     UNIT         ?PR?_APPEND_SPEED?MIWIFI
            CODE    7AFAH     006FH     UNIT         ?PR?RCCHECK?RC
            CODE    7B69H     006BH     UNIT         ?PR?_INITIALUART1?INI
            CODE    7BD4H     006BH     UNIT         ?PR?SHOW_NET_STATE?FACTORY
            CODE    7C3FH     0067H     UNIT         ?PR?SPEED_RPM_CONVERT?CONTROL
            CODE    7CA6H     0067H     UNIT         ?PR?TIMER1_RPT?TIME
            CODE    7D0DH     0066H     UNIT         ?PR?_DISP_CUSTOM?IMAGE
            CODE    7D73H     0062H     UNIT         ?PR?_APPEND_STR?MIWIFI
            CODE    7DD5H     0061H     UNIT         ?PR?RUN_STEPDOWN?RUN_MODE
            CODE    7E36H     005DH     UNIT         ?PR?PORTDDR_SET?INI
            CODE    7E93H     005DH     UNIT         ?PR?RUN?RUN_MODE
            CODE    7EF0H     0056H     UNIT         ?PR?TIME_CALCULATION?CONTROL
            CODE    7F46H     0055H     UNIT         ?PR?_DISP_ALTERNANT_NET?IMAGE
            CODE    7F9BH     0053H     UNIT         ?PR?GETFANSPEED?FAN
            CODE    7FEEH     004EH     UNIT         ?PR?MAIN?MAIN
            CODE    803CH     004AH     UNIT         ?PR?INI?INI
            CODE    8086H     004AH     UNIT         ?PR?_EEPROM_WRITE_INT?EEPROM
            CODE    80D0H     004AH     UNIT         ?PR?_VSPRINTF?VSPRINTF
            CODE    811AH     0049H     UNIT         ?PR?_APPEND_INT?MIWIFI
            CODE    8163H     0048H     UNIT         ?PR?CLEAR_OFFLINE_DATA?MIWIFI
            CODE    81ABH     0046H     UNIT         ?PR?_EEPROM_WRITE_LONG?EEPROM
            CODE    81F1H     0046H     UNIT         ?PR?_APPEND_LONG?MIWIFI
            CODE    8237H     0044H     UNIT         ?C?LDIV
            CODE    827BH     0042H     UNIT         ?PR?_DISP_1F?IMAGE
            CODE    82BDH     0042H     UNIT         ?PR?_DISP_2F?IMAGE
            CODE    82FFH     003BH     UNIT         ?PR?CHECK_KEY_ID?KEY
            CODE    833AH     0030H     UNIT         ?CO?FACTORY
            CODE    836AH     002DH     UNIT         ?PR?_DISP_MATRIX?IMAGE
            CODE    8397H     002AH     UNIT         ?PR?USEROPERATION?CONTROL
            CODE    83C1H     0028H     UNIT         ?PR?_DISP_LD?IMAGE
            CODE    83E9H     0027H     UNIT         ?PR?PUTCHAR?PUTCHAR
            CODE    8410H     0026H     UNIT         ?PR?_LED_SEND_DATA_BIT?DISPLAYDRIVER
            CODE    8436H     0025H     UNIT         ?PR?DISPLAYDRIVERINITIALIZELED?DISPLAYDRIVER
            CODE    845BH     0022H     UNIT         ?PR?TIMER_PROC?TIME
            CODE    847DH     0020H     UNIT         ?PR?CLOCK_INI?INI
            CODE    849DH     001DH     UNIT         ?PR?_LED_SEND_COMMAND_BIT?DISPLAYDRIVER
            CODE    84BAH     001CH     UNIT         ?PR?_STRCHR?STRCHR
            CODE    84D6H     001BH     UNIT         ?PR?TIMER0_INI?INI
            CODE    84F1H     001BH     UNIT         ?PR?TIMER1_INI?INI
            CODE    850CH     001BH     UNIT         ?PR?_FLASH_ERASEBLOCK?EEPROM
BL51 BANKED LINKER/LOCATER V6.22.2.0                                                  07/13/2018  15:19:21  PAGE 5


            CODE    8527H     001BH     UNIT         ?PR?_DISP_D?IMAGE
            CODE    8542H     0017H     UNIT         ?PR?_LED_WRITE_COMMAND?DISPLAYDRIVER
            CODE    8559H     0016H     UNIT         ?PR?EXTI1_INI?INI
            CODE    856FH     0015H     UNIT         ?PR?_STRLEN?STRLEN
            CODE    8584H     0014H     UNIT         ?PR?_ISSPACE?ISSPACE
            CODE    8598H     0012H     UNIT         ?CO?BEEP
            CODE    85AAH     0012H     UNIT         ?PR?_DISP_MATRIX_ALL?IMAGE
            CODE    85BCH     000FH     UNIT         ?PR?CLOCK?TIME
            CODE    85CBH     000FH     UNIT         ?PR?_ISDIGIT?ISDIGIT
            CODE    85DAH     000CH     UNIT         ?PR?WDG_INI?INI
            CODE    85E6H     000CH     UNIT         ?PR?DELAY__HX711_US?SENSOR



OVERLAY MAP OF MODULE:   .\Objects\walkingpad (?C_STARTUP)


SEGMENT                                             BIT_GROUP          DATA_GROUP          XDATA_GROUP
  +--> CALLED SEGMENT                            START    LENGTH     START    LENGTH     START    LENGTH
--------------------------------------------------------------------------------------------------------
?C_C51STARTUP                                    -----    -----      -----    -----      -----    -----
  +--> ?PR?MAIN?MAIN
  +--> ?C_INITSEG

?PR?MAIN?MAIN                                    -----    -----      -----    -----      -----    -----
  +--> ?PR?INI?INI
  +--> ?PR?FEED_WDG?INI
  +--> ?PR?TIMER_PROC?TIME
  +--> ?PR?KEY_SCAN?KEY
  +--> ?PR?DETECT_ERROR?ERROR
  +--> ?PR?HX711_WEIGHT?SENSOR
  +--> ?PR?FACTORYTESTOPERATION?FACTORY
  +--> ?PR?USEROPERATION?CONTROL
  +--> ?PR?DISPLAYDRIVERPROCESSLED?DISPLAYDR...
  +--> ?PR?COMMU?COMMU
  +--> ?PR?COMMU_WIFI?MIWIFI
  +--> ?PR?BUZZCON?BEEP

?PR?INI?INI                                      -----    -----      -----    -----      -----    -----
  +--> ?PR?CLOCK_INI?INI
  +--> ?PR?PORTDDR_SET?INI
  +--> ?PR?EXTI1_INI?INI
  +--> ?PR?TIMER0_INI?INI
  +--> ?PR?TIMER1_INI?INI
  +--> ?PR?_INITIALUART1?INI
  +--> ?PR?_INITIALUART2?INI
  +--> ?PR?WDG_INI?INI
  +--> ?PR?DISPLAYDRIVERINITIALIZELED?DISPLA...
  +--> ?PR?INIT_PARAMS?INI
  +--> ?PR?_EEPROM_WRCHAR?EEPROM

?PR?_INITIALUART1?INI                            -----    -----      -----    -----      01EEH    0004H

?PR?_INITIALUART2?INI                            -----    -----      -----    -----      01EEH    0004H

?PR?DISPLAYDRIVERINITIALIZELED?DISPLA...         -----    -----      -----    -----      -----    -----
  +--> ?PR?_LED_WRITE_COMMAND?DISPLAYDRIVER
BL51 BANKED LINKER/LOCATER V6.22.2.0                                                  07/13/2018  15:19:21  PAGE 6



?PR?_LED_WRITE_COMMAND?DISPLAYDRIVER             -----    -----      -----    -----      -----    -----
  +--> ?PR?_LED_SEND_COMMAND_BIT?DISPLAYDRIVER

?PR?INIT_PARAMS?INI                              -----    -----      -----    -----      -----    -----
  +--> ?PR?EEPROM_READ?EEPROM

?PR?_EEPROM_WRCHAR?EEPROM                        -----    -----      -----    -----      -----    -----
  +--> ?PR?_FLASH_ERASEBLOCK?EEPROM

?PR?DETECT_ERROR?ERROR                           -----    -----      -----    -----      01EEH    0004H
  +--> ?PR?CLOCK?TIME
  +--> ?PR?_EEPROM_WRCHAR?EEPROM
  +--> ?PR?_EEPROM_WRITE_LONG?EEPROM
  +--> ?PR?_BEEP?BEEP

?PR?_EEPROM_WRITE_LONG?EEPROM                    -----    -----      -----    -----      01F9H    0007H
  +--> ?PR?_EEPROM_WRCHAR?EEPROM

?PR?HX711_WEIGHT?SENSOR                          -----    -----      -----    -----      01EEH    0008H
  +--> ?PR?HX711_READ1?SENSOR
  +--> ?PR?HX711_READ2?SENSOR
  +--> ?PR?_GET_MEDIAN?SENSOR
  +--> ?PR?CALC_DISCONNECT?SENSOR
  +--> ?PR?ADJUST_DRIFT?SENSOR

?PR?HX711_READ1?SENSOR                           -----    -----      -----    -----      01F6H    0004H
  +--> ?PR?DELAY__HX711_US?SENSOR

?PR?HX711_READ2?SENSOR                           -----    -----      -----    -----      01F6H    0004H
  +--> ?PR?DELAY__HX711_US?SENSOR

?PR?_GET_MEDIAN?SENSOR                           -----    -----      -----    -----      01F6H    0017H

?PR?ADJUST_DRIFT?SENSOR                          -----    -----      -----    -----      -----    -----
  +--> ?PR?DO_DRIFT?SENSOR

?PR?FACTORYTESTOPERATION?FACTORY                 -----    -----      -----    -----      -----    -----
  +--> ?PR?_DISP_MATRIX_ALL?IMAGE
  +--> ?CO?FACTORY
  +--> ?PR?_DISP_CUSTOM?IMAGE
  +--> ?PR?PROGMODEKEYS?PROGRAM
  +--> ?PR?USERCONSUMERKEYS?MOTION
  +--> ?PR?FACTORYTESTKEYS?FACTORY
  +--> ?PR?EEPROM_FACTORY?EEPROM
  +--> ?PR?INIT_PARAMS?INI
  +--> ?PR?_DISP_TEXT?IMAGE
  +--> ?PR?_DISP_D?IMAGE
  +--> ?CO?MIWIFI
  +--> ?PR?_DISP_LD?IMAGE
  +--> ?PR?SPEED_RPM_CONVERT?CONTROL
  +--> ?PR?USERCONSUMEROPERATION?MOTION
  +--> ?PR?RUN?RUN_MODE
  +--> ?PR?USERCONSUMERDISPLAY?MOTION
  +--> ?PR?SHOW_NET_STATE?FACTORY
  +--> ?PR?_EEPROM_WRCHAR?EEPROM
  +--> ?PR?_DISP_1F?IMAGE
BL51 BANKED LINKER/LOCATER V6.22.2.0                                                  07/13/2018  15:19:21  PAGE 7



?PR?_DISP_CUSTOM?IMAGE                           -----    -----      -----    -----      01F7H    002FH
  +--> ?PR?_VSPRINTF?VSPRINTF
  +--> ?PR?_DISP_TEXT?IMAGE

?PR?_VSPRINTF?VSPRINTF                           -----    -----      -----    -----      0226H    0006H
  +--> ?PR?PRINTF?PRINTF

?PR?PRINTF?PRINTF                                0020H.0  0001H.1    0008H    0005H      022CH    0030H
  +--> ?PR?PUTCHAR?PUTCHAR

?PR?_DISP_TEXT?IMAGE                             -----    -----      -----    -----      0226H    000BH
  +--> ?CO?IMAGE

?PR?PROGMODEKEYS?PROGRAM                         -----    -----      -----    -----      -----    -----
  +--> ?PR?CHECK_KEY_ID?KEY
  +--> ?PR?_BEEP?BEEP
  +--> ?PR?_EEPROM_WRCHAR?EEPROM

?PR?CHECK_KEY_ID?KEY                             -----    -----      -----    -----      -----    -----
  +--> ?PR?RCCHECK?RC

?PR?USERCONSUMERKEYS?MOTION                      -----    -----      -----    -----      -----    -----
  +--> ?PR?CHECK_KEY_ID?KEY
  +--> ?PR?_BEEP?BEEP
  +--> ?PR?_GOTO_STATE?MOTION

?PR?FACTORYTESTKEYS?FACTORY                      -----    -----      -----    -----      -----    -----
  +--> ?PR?CHECK_KEY_ID?KEY
  +--> ?PR?_BEEP?BEEP
  +--> ?PR?_DISP_MATRIX_ALL?IMAGE
  +--> ?PR?_EEPROM_WRCHAR?EEPROM

?PR?EEPROM_FACTORY?EEPROM                        -----    -----      -----    -----      01EEH    0002H
  +--> ?PR?_EEPROM_WRCHAR?EEPROM

?PR?_DISP_D?IMAGE                                -----    -----      -----    -----      -----    -----
  +--> ?CO?IMAGE
  +--> ?PR?_DISP_CUSTOM?IMAGE

?PR?_DISP_LD?IMAGE                               -----    -----      -----    -----      01F2H    0005H
  +--> ?CO?IMAGE
  +--> ?PR?_DISP_CUSTOM?IMAGE

?PR?USERCONSUMEROPERATION?MOTION                 -----    -----      -----    -----      01EEH    0004H
  +--> ?PR?_EEPROM_WRCHAR?EEPROM
  +--> ?PR?_GOTO_STATE?MOTION
  +--> ?PR?_BEEP?BEEP
  +--> ?PR?RESET_DATA?CONTROL
  +--> ?PR?RUN_NEW?RUN_MODE
  +--> ?PR?_EEPROM_WRITE_INT?EEPROM
  +--> ?PR?_EEPROM_WRITE_LONG?EEPROM
  +--> ?PR?RUN?RUN_MODE
  +--> ?PR?SAVE_TOTAL_DISTANCE?CONTROL

?PR?RUN_NEW?RUN_MODE                             -----    -----      -----    -----      -----    -----
  +--> ?PR?RUN_FIXED?RUN_MODE
BL51 BANKED LINKER/LOCATER V6.22.2.0                                                  07/13/2018  15:19:21  PAGE 8


  +--> ?PR?RUN_AUTO?RUN_MODE
  +--> ?PR?_EEPROM_WRCHAR?EEPROM

?PR?RUN_FIXED?RUN_MODE                           -----    -----      -----    -----      -----    -----
  +--> ?PR?_BEEP?BEEP

?PR?RUN_AUTO?RUN_MODE                            -----    -----      -----    -----      01F2H    0003H
  +--> ?PR?_BEEP?BEEP

?PR?_EEPROM_WRITE_INT?EEPROM                     -----    -----      -----    -----      01F9H    0005H
  +--> ?PR?_EEPROM_WRCHAR?EEPROM

?PR?RUN?RUN_MODE                                 -----    -----      -----    -----      -----    -----
  +--> ?PR?RUN_STEPDOWN?RUN_MODE
  +--> ?PR?RUN_AUTO?RUN_MODE
  +--> ?PR?_BEEP?BEEP
  +--> ?PR?RUN_NEW?RUN_MODE
  +--> ?PR?RUN_FIXED?RUN_MODE

?PR?SAVE_TOTAL_DISTANCE?CONTROL                  -----    -----      -----    -----      -----    -----
  +--> ?PR?_EEPROM_WRITE_LONG?EEPROM

?PR?USERCONSUMERDISPLAY?MOTION                   -----    -----      -----    -----      01EEH    0004H
  +--> ?PR?_DISP_MATRIX_ALL?IMAGE
  +--> ?PR?SET_RUNMODE_LED?MOTION
  +--> ?CO?MOTION
  +--> ?PR?_DISP_ALTERNANT_NET?IMAGE
  +--> ?PR?_DISP_ALTERNANT2_NET?IMAGE
  +--> ?PR?_DISP_MATRIX?IMAGE
  +--> ?PR?_DISP_TEXT?IMAGE
  +--> ?PR?DISPLAYDRIVERINITIALIZELED?DISPLA...
  +--> ?PR?_DISP_2F?IMAGE
  +--> ?PR?_DISP_1F?IMAGE
  +--> ?PR?_DISP_LD?IMAGE
  +--> ?PR?_DISP_D?IMAGE
  +--> ?CO?MIWIFI
  +--> ?PR?_DISP_CUSTOM?IMAGE
  +--> ?PR?CLOCK?TIME
  +--> ?PR?_BEEP?BEEP

?PR?_DISP_ALTERNANT_NET?IMAGE                    -----    -----      -----    -----      01F2H    0004H
  +--> ?PR?CLOCK?TIME

?PR?_DISP_ALTERNANT2_NET?IMAGE                   -----    -----      -----    -----      01F2H    0008H
  +--> ?PR?CLOCK?TIME

?PR?_DISP_MATRIX?IMAGE                           -----    -----      -----    -----      -----    -----
  +--> ?CO?IMAGE

?PR?_DISP_2F?IMAGE                               -----    -----      -----    -----      01F2H    0002H
  +--> ?CO?IMAGE
  +--> ?PR?_DISP_CUSTOM?IMAGE

?PR?_DISP_1F?IMAGE                               -----    -----      -----    -----      01F2H    0002H
  +--> ?CO?IMAGE
  +--> ?PR?_DISP_CUSTOM?IMAGE

BL51 BANKED LINKER/LOCATER V6.22.2.0                                                  07/13/2018  15:19:21  PAGE 9


?PR?SHOW_NET_STATE?FACTORY                       -----    -----      -----    -----      -----    -----
  +--> ?PR?_EEPROM_WRCHAR?EEPROM
  +--> ?PR?_DISP_ALTERNANT2_NET?IMAGE
  +--> ?PR?_DISP_ALTERNANT_NET?IMAGE

?PR?USEROPERATION?CONTROL                        -----    -----      -----    -----      -----    -----
  +--> ?PR?TIME_CALCULATION?CONTROL
  +--> ?PR?DIST_CALCULATION?CONTROL
  +--> ?PR?SPEED_RPM_CONVERT?CONTROL
  +--> ?PR?PROGMODEKEYS?PROGRAM
  +--> ?PR?USERCONSUMERKEYS?MOTION
  +--> ?PR?USERCONSUMEROPERATION?MOTION
  +--> ?PR?USERCONSUMERDISPLAY?MOTION

?PR?TIME_CALCULATION?CONTROL                     -----    -----      -----    -----      -----    -----
  +--> ?PR?_BEEP?BEEP
  +--> ?PR?SAVE_TOTAL_DISTANCE?CONTROL
  +--> ?PR?RESET_DATA?CONTROL

?PR?DIST_CALCULATION?CONTROL                     -----    -----      -----    -----      -----    -----
  +--> ?PR?_BEEP?BEEP
  +--> ?PR?SAVE_TOTAL_DISTANCE?CONTROL
  +--> ?PR?RESET_DATA?CONTROL
  +--> ?PR?PREPARE_STATISTIC_DATA?CONTROL

?PR?PREPARE_STATISTIC_DATA?CONTROL               -----    -----      -----    -----      01EEH    0002H

?PR?DISPLAYDRIVERPROCESSLED?DISPLAYDR...         -----    -----      -----    -----      01F9H    0006H
  +--> ?PR?_LED_SEND_COMMAND_BIT?DISPLAYDRIVER
  +--> ?PR?_LED_SEND_DATA_BIT?DISPLAYDRIVER

?PR?COMMU?COMMU                                  -----    -----      -----    -----      -----    -----
  +--> ?PR?GETFANSPEED?FAN

?PR?COMMU_WIFI?MIWIFI                            -----    -----      -----    -----      01EEH    000BH
  +--> ?CO?MIWIFI
  +--> ?PR?PRINTF?PRINTF
  +--> ?PR?_APPEND_SPEED?MIWIFI
  +--> ?PR?GET_STORE_TIME?MIWIFI
  +--> ?PR?CLEAR_OFFLINE_DATA?MIWIFI
  +--> ?PR?_STRLEN?STRLEN
  +--> ?PR?_STRNCMP?STRNCMP
  +--> ?PR?_APPEND_INT?MIWIFI
  +--> ?PR?_APPEND_LONG?MIWIFI
  +--> ?PR?_APPEND_STR?MIWIFI
  +--> ?PR?_BEEP?BEEP
  +--> ?PR?_PARSE_SPEED?MIWIFI
  +--> ?PR?_EEPROM_WRCHAR?EEPROM
  +--> ?PR?_ATOI?ATOI
  +--> ?PR?_EEPROM_WRITE_INT?EEPROM
  +--> ?PR?_DISP_MATRIX_ALL?IMAGE
  +--> ?PR?_DISP_TEXT?IMAGE
  +--> ?PR?DISPLAYDRIVERPROCESSLED?DISPLAYDR...
  +--> ?PR?_PROCESS_NET_STATE?MIWIFI
  +--> ?PR?_STRSTR?STRSTR
  +--> ?PR?_ATOL?ATOL
  +--> ?PR?CLOCK?TIME
BL51 BANKED LINKER/LOCATER V6.22.2.0                                                  07/13/2018  15:19:21  PAGE 10



?PR?_APPEND_SPEED?MIWIFI                         -----    -----      -----    -----      01F9H    0004H
  +--> ?CO?MIWIFI
  +--> ?PR?PRINTF?PRINTF

?PR?GET_STORE_TIME?MIWIFI                        -----    -----      -----    -----      01F9H    0004H
  +--> ?PR?CLOCK?TIME

?PR?CLEAR_OFFLINE_DATA?MIWIFI                    -----    -----      -----    -----      -----    -----
  +--> ?PR?_EEPROM_WRITE_INT?EEPROM
  +--> ?PR?_EEPROM_WRITE_LONG?EEPROM

?PR?_STRNCMP?STRNCMP                             -----    -----      -----    -----      01FCH    0008H

?PR?_APPEND_INT?MIWIFI                           -----    -----      -----    -----      01F9H    0003H
  +--> ?CO?MIWIFI
  +--> ?PR?PRINTF?PRINTF

?PR?_APPEND_LONG?MIWIFI                          -----    -----      -----    -----      01F9H    0003H
  +--> ?CO?MIWIFI
  +--> ?PR?PRINTF?PRINTF

?PR?_APPEND_STR?MIWIFI                           -----    -----      -----    -----      01F9H    0006H
  +--> ?CO?MIWIFI
  +--> ?PR?PRINTF?PRINTF

?PR?_PARSE_SPEED?MIWIFI                          -----    -----      -----    -----      01F9H    0005H
  +--> ?PR?_ATOI?ATOI
  +--> ?PR?_STRCHR?STRCHR
  +--> ?PR?_ISDIGIT?ISDIGIT

?PR?_ATOI?ATOI                                   0020H.0  0000H.1    -----    -----      01FEH    0005H
  +--> ?PR?_ISSPACE?ISSPACE
  +--> ?PR?_ISDIGIT?ISDIGIT

?PR?_PROCESS_NET_STATE?MIWIFI                    -----    -----      -----    -----      01F9H    0003H
  +--> ?CO?MIWIFI
  +--> ?PR?_STRNCMP?STRNCMP

?PR?_STRSTR?STRSTR                               -----    -----      -----    -----      01F9H    000CH

?PR?_ATOL?ATOL                                   0020H.0  0000H.1    -----    -----      01F9H    0007H
  +--> ?PR?_ISSPACE?ISSPACE
  +--> ?PR?_ISDIGIT?ISDIGIT

?PR?BUZZCON?BEEP                                 -----    -----      -----    -----      -----    -----
  +--> ?CO?BEEP



SYMBOL TABLE OF MODULE:  .\Objects\walkingpad (?C_STARTUP)

  VALUE           TYPE          NAME
  ----------------------------------

  -------         MODULE        ?C_STARTUP
  C:7360H         SEGMENT       ?C_C51STARTUP
BL51 BANKED LINKER/LOCATER V6.22.2.0                                                  07/13/2018  15:19:21  PAGE 11


  I:0024H         SEGMENT       ?STACK
  C:0000H         PUBLIC        ?C_STARTUP
  D:00E0H         SYMBOL        ACC
  D:00F0H         SYMBOL        B
  D:0083H         SYMBOL        DPH
  D:0082H         SYMBOL        DPL
  N:0000H         SYMBOL        IBPSTACK
  N:0100H         SYMBOL        IBPSTACKTOP
  N:0100H         SYMBOL        IDATALEN
  C:7363H         SYMBOL        IDATALOOP
  N:0000H         SYMBOL        PBPSTACK
  N:0100H         SYMBOL        PBPSTACKTOP
  N:0000H         SYMBOL        PDATALEN
  N:0000H         SYMBOL        PDATASTART
  N:0000H         SYMBOL        PPAGE
  N:0000H         SYMBOL        PPAGEENABLE
  D:00A0H         SYMBOL        PPAGE_SFR
  D:0081H         SYMBOL        SP
  C:7360H         SYMBOL        STARTUP1
  N:0000H         SYMBOL        XBPSTACK
  N:0000H         SYMBOL        XBPSTACKTOP
  N:0800H         SYMBOL        XDATALEN
  C:736EH         SYMBOL        XDATALOOP
  N:0000H         SYMBOL        XDATASTART
  C:0000H         LINE#         126
  C:7360H         LINE#         133
  C:7362H         LINE#         134
  C:7363H         LINE#         135
  C:7364H         LINE#         136
  C:7366H         LINE#         140
  C:7369H         LINE#         141
  C:736BH         LINE#         145
  C:736DH         LINE#         147
  C:736EH         LINE#         148
  C:736FH         LINE#         149
  C:7370H         LINE#         150
  C:7372H         LINE#         151
  C:7374H         LINE#         185
  C:7377H         LINE#         196
  -------         ENDMOD        ?C_STARTUP

  -------         MODULE        COMMU
  C:0000H         SYMBOL        _ICE_DUMMY_
  D:0080H         PUBLIC        P0
  D:0090H         PUBLIC        P1
  X:03F7H         PUBLIC        command_size
  D:00A0H         PUBLIC        P2
  D:00B0H         PUBLIC        P3
  D:00C0H         PUBLIC        P4
  D:00C8H         PUBLIC        P5
  C:623AH         PUBLIC        UART2_Rpt
  D:00A8H         PUBLIC        IE
  X:03F8H         SYMBOL        command_id
  D:00F8H         PUBLIC        RSTFR
  C:52BFH         PUBLIC        commu
  X:03F9H         SYMBOL        commu_state
  D:0098H         PUBLIC        SCON
BL51 BANKED LINKER/LOCATER V6.22.2.0                                                  07/13/2018  15:19:21  PAGE 12


  D:0088H         PUBLIC        TCON
  X:03FAH         SYMBOL        pccom_fail_cnt
  D:00B8H         PUBLIC        IE1
  B:0023H.2       PUBLIC        flag_motor_params_changed
  D:00D0H         PUBLIC        PSW
  -------         PROC          COMMU
  -------         DO            
  D:0007H         SYMBOL        temp8
  D:0006H         SYMBOL        tempc
  -------         ENDDO         
  C:52BFH         LINE#         39
  C:52BFH         LINE#         40
  C:52BFH         LINE#         43
  C:52C8H         LINE#         44
  C:52C8H         LINE#         45
  C:52CBH         LINE#         46
  C:52CBH         LINE#         47
  C:52CDH         LINE#         48
  C:52D3H         LINE#         49
  C:52D3H         LINE#         50
  C:52D9H         LINE#         51
  C:52DFH         LINE#         52
  C:52E2H         LINE#         53
  C:52E8H         LINE#         54
  C:52EAH         LINE#         55
  C:52F2H         LINE#         56
  C:5300H         LINE#         57
  C:5300H         LINE#         58
  C:5300H         LINE#         59
  C:5306H         LINE#         60
  C:5308H         LINE#         61
  C:5308H         LINE#         62
  C:530EH         LINE#         63
  C:5316H         LINE#         64
  C:531BH         LINE#         67
  C:532AH         LINE#         68
  C:532DH         LINE#         70
  C:5335H         LINE#         71
  C:533DH         LINE#         72
  C:5340H         LINE#         78
  C:5348H         LINE#         81
  C:5352H         LINE#         82
  C:535AH         LINE#         83
  C:535CH         LINE#         84
  C:535CH         LINE#         85
  C:5362H         LINE#         86
  C:536AH         LINE#         87
  C:536FH         LINE#         90
  C:537EH         LINE#         91
  C:5386H         LINE#         92
  C:5386H         LINE#         93
  C:5386H         LINE#         94
  C:5386H         LINE#         95
  C:5386H         LINE#         96
  C:5391H         LINE#         97
  C:5391H         LINE#         98
  C:539FH         LINE#         99
BL51 BANKED LINKER/LOCATER V6.22.2.0                                                  07/13/2018  15:19:21  PAGE 13


  C:539FH         LINE#         100
  C:53ACH         LINE#         101
  C:53AFH         LINE#         102
  C:53BFH         LINE#         103
  C:53CCH         LINE#         105
  C:53D4H         LINE#         107
  C:53D4H         LINE#         108
  C:53D7H         LINE#         109
  C:53E2H         LINE#         110
  C:53E2H         LINE#         111
  C:53E8H         LINE#         112
  C:53E8H         LINE#         113
  C:53ECH         LINE#         114
  C:53F0H         LINE#         115
  C:53F2H         LINE#         116
  C:53F4H         LINE#         117
  C:53F8H         LINE#         118
  C:5400H         LINE#         120
  C:5411H         LINE#         121
  C:5411H         LINE#         122
  C:5411H         LINE#         124
  C:5419H         LINE#         128
  C:541FH         LINE#         129
  C:5420H         LINE#         130
  C:5420H         LINE#         131
  C:542FH         LINE#         132
  C:543EH         LINE#         133
  C:544DH         LINE#         134
  C:5455H         LINE#         135
  C:545EH         LINE#         139
  C:5472H         LINE#         141
  C:5479H         LINE#         142
  C:547EH         LINE#         143
  C:548EH         LINE#         144
  C:5494H         LINE#         145
  C:5495H         LINE#         146
  C:5495H         LINE#         147
  C:549DH         LINE#         148
  C:54AAH         LINE#         149
  C:54B9H         LINE#         150
  C:54C8H         LINE#         151
  C:54D0H         LINE#         152
  C:54D8H         LINE#         153
  C:54ECH         LINE#         154
  C:54EDH         LINE#         155
  C:54EDH         LINE#         156
  C:54F3H         LINE#         157
  C:54F3H         LINE#         158
  C:54F4H         LINE#         160
  C:54F4H         LINE#         161
  C:5501H         LINE#         162
  C:5501H         LINE#         163
  C:550DH         LINE#         164
  C:550DH         LINE#         165
  C:550FH         LINE#         166
  C:5511H         LINE#         168
  C:5511H         LINE#         169
BL51 BANKED LINKER/LOCATER V6.22.2.0                                                  07/13/2018  15:19:21  PAGE 14


  C:5517H         LINE#         170
  C:5517H         LINE#         171
  C:551CH         LINE#         172
  C:5521H         LINE#         173
  C:5526H         LINE#         174
  C:5527H         LINE#         176
  C:5527H         LINE#         177
  C:552DH         LINE#         178
  C:552DH         LINE#         179
  C:552DH         LINE#         180
  C:552EH         LINE#         182
  C:552EH         LINE#         183
  C:5533H         LINE#         184
  C:5538H         LINE#         185
  C:5538H         LINE#         186
  -------         ENDPROC       COMMU
  -------         PROC          UART2_RPT
  -------         DO            
  D:0006H         SYMBOL        tempi
  D:0007H         SYMBOL        tempj
  -------         ENDDO         
  C:623AH         LINE#         188
  C:624DH         LINE#         191
  C:6257H         LINE#         192
  C:6257H         LINE#         193
  C:6266H         LINE#         194
  C:627BH         LINE#         195
  C:6281H         LINE#         196
  C:6281H         LINE#         197
  C:628FH         LINE#         198
  C:6291H         LINE#         201
  C:6294H         LINE#         202
  C:629AH         LINE#         203
  C:629AH         LINE#         204
  C:62A8H         LINE#         205
  C:62AAH         LINE#         208
  C:62ADH         LINE#         209
  C:62B8H         LINE#         210
  C:62B8H         LINE#         211
  C:62CBH         LINE#         216
  C:62DDH         LINE#         217
  C:62DDH         LINE#         218
  C:62EFH         LINE#         219
  C:62EFH         LINE#         220
  C:62F0H         LINE#         221
  C:630EH         LINE#         222
  C:631CH         LINE#         223
  C:631CH         LINE#         224
  C:631EH         LINE#         225
  C:6323H         LINE#         226
  C:6327H         LINE#         227
  C:6329H         LINE#         228
  C:6329H         LINE#         229
  C:632BH         LINE#         230
  C:632BH         LINE#         233
  C:632DH         LINE#         235
  C:632DH         LINE#         236
BL51 BANKED LINKER/LOCATER V6.22.2.0                                                  07/13/2018  15:19:21  PAGE 15


  C:633FH         LINE#         237
  C:6344H         LINE#         238
  C:6344H         LINE#         240
  C:634BH         LINE#         241
  C:634BH         LINE#         242
  C:6352H         LINE#         243
  C:6352H         LINE#         244
  C:6362H         LINE#         245
  C:6381H         LINE#         247
  C:6381H         LINE#         248
  C:6386H         LINE#         249
  C:6386H         LINE#         250
  C:638DH         LINE#         251
  C:638DH         LINE#         252
  -------         ENDPROC       UART2_RPT
  -------         ENDMOD        COMMU

  -------         MODULE        DISPLAYDRIVER
  C:0000H         SYMBOL        _ICE_DUMMY_
  D:0080H         PUBLIC        P0
  D:0090H         PUBLIC        P1
  D:00A0H         PUBLIC        P2
  D:00B0H         PUBLIC        P3
  D:00C0H         PUBLIC        P4
  D:00C8H         PUBLIC        P5
  C:6B70H         PUBLIC        DisplayDriverProcessLED
  D:00A8H         PUBLIC        IE
  D:00F8H         PUBLIC        RSTFR
  B:0080H.4       PUBLIC        P0_4
  B:0080H.5       PUBLIC        P0_5
  B:0080H.6       PUBLIC        P0_6
  C:8414H         PUBLIC        _LED_Send_Data_Bit
  D:0098H         PUBLIC        SCON
  D:0088H         PUBLIC        TCON
  C:8436H         PUBLIC        DisplayDriverInitializeLED
  D:00B8H         PUBLIC        IE1
  C:849DH         PUBLIC        _LED_Send_Command_Bit
  C:8542H         PUBLIC        _LED_Write_Command
  D:00D0H         PUBLIC        PSW
  -------         PROC          _LED_SEND_COMMAND_BIT
  D:0007H         SYMBOL        dat
  D:0005H         SYMBOL        n
  -------         DO            
  D:0006H         SYMBOL        i
  -------         ENDDO         
  C:849DH         LINE#         30
  C:849DH         LINE#         31
  C:849DH         LINE#         33
  C:84A4H         LINE#         34
  C:84A4H         LINE#         35
  C:84A6H         LINE#         36
  C:84AAH         LINE#         37
  C:84AAH         LINE#         38
  C:84ACH         LINE#         39
  C:84AEH         LINE#         41
  C:84AEH         LINE#         42
  C:84B0H         LINE#         43
BL51 BANKED LINKER/LOCATER V6.22.2.0                                                  07/13/2018  15:19:21  PAGE 16


  C:84B0H         LINE#         44
  C:84B4H         LINE#         46
  C:84B6H         LINE#         47
  C:84B9H         LINE#         48
  -------         ENDPROC       _LED_SEND_COMMAND_BIT
  C:8410H         SYMBOL        L?0024
  -------         PROC          L?0023
  -------         ENDPROC       L?0023
  C:8410H         SYMBOL        L?0024
  -------         PROC          _LED_SEND_DATA_BIT
  D:0007H         SYMBOL        dat
  -------         DO            
  D:0006H         SYMBOL        i
  -------         ENDDO         
  C:8414H         LINE#         50
  C:8414H         LINE#         51
  C:8414H         LINE#         53
  C:8420H         LINE#         54
  C:8420H         LINE#         55
  C:8422H         LINE#         56
  C:8426H         LINE#         57
  C:8426H         LINE#         58
  C:8428H         LINE#         59
  C:842AH         LINE#         61
  C:842AH         LINE#         62
  C:842CH         LINE#         63
  C:842CH         LINE#         64
  C:8430H         LINE#         66
  C:8432H         LINE#         67
  C:8435H         LINE#         68
  -------         ENDPROC       _LED_SEND_DATA_BIT
  -------         PROC          _LED_WRITE_COMMAND
  D:0004H         SYMBOL        command
  C:8542H         LINE#         70
  C:8544H         LINE#         71
  C:8544H         LINE#         72
  C:8546H         LINE#         75
  C:8548H         LINE#         77
  C:854FH         LINE#         78
  C:8556H         LINE#         80
  C:8558H         LINE#         81
  -------         ENDPROC       _LED_WRITE_COMMAND
  -------         PROC          DISPLAYDRIVERPROCESSLED
  -------         DO            
  D:0005H         SYMBOL        i
  D:0004H         SYMBOL        c
  X:01F9H         SYMBOL        image_up
  X:01FCH         SYMBOL        image_down
  -------         ENDDO         
  C:6B70H         LINE#         83
  C:6B70H         LINE#         84
  C:6B70H         LINE#         88
  C:6B85H         LINE#         89
  C:6B9AH         LINE#         93
  C:6B9CH         LINE#         95
  C:6BA3H         LINE#         96
  C:6BAAH         LINE#         98
BL51 BANKED LINKER/LOCATER V6.22.2.0                                                  07/13/2018  15:19:21  PAGE 17


  C:6BB9H         LINE#         99
  C:6BD6H         LINE#         100
  C:6BD6H         LINE#         101
  C:6BDAH         LINE#         102
  C:6BFEH         LINE#         103
  C:6C02H         LINE#         104
  C:6C05H         LINE#         105
  C:6C12H         LINE#         106
  C:6C12H         LINE#         107
  C:6C29H         LINE#         108
  C:6C48H         LINE#         109
  C:6C4BH         LINE#         110
  C:6C50H         LINE#         111
  C:6C61H         LINE#         114
  C:6C63H         LINE#         115
  -------         ENDPROC       DISPLAYDRIVERPROCESSLED
  -------         PROC          DISPLAYDRIVERINITIALIZELED
  C:8436H         LINE#         116
  C:8436H         LINE#         117
  C:8436H         LINE#         119
  C:8438H         LINE#         120
  C:843DH         LINE#         122
  C:8442H         LINE#         124
  C:8447H         LINE#         126
  C:844CH         LINE#         129
  C:8451H         LINE#         134
  C:8456H         LINE#         136
  -------         ENDPROC       DISPLAYDRIVERINITIALIZELED
  -------         ENDMOD        DISPLAYDRIVER

  -------         MODULE        INI
  C:0000H         SYMBOL        _ICE_DUMMY_
  D:0080H         PUBLIC        P0
  D:0090H         PUBLIC        P1
  D:00A0H         PUBLIC        P2
  D:00B0H         PUBLIC        P3
  D:00C0H         PUBLIC        P4
  D:009DH         PUBLIC        SBRTH
  D:00C8H         PUBLIC        P5
  B:00A8H.7       PUBLIC        EA
  D:009CH         PUBLIC        SBRTL
  D:00A8H         PUBLIC        IE
  B:0080H.0       PUBLIC        P0_0
  B:0090H.0       PUBLIC        P1_0
  B:0090H.1       PUBLIC        P1_1
  B:0080H.3       PUBLIC        P0_3
  D:00F8H         PUBLIC        RSTFR
  B:0080H.4       PUBLIC        P0_4
  B:00C0H.2       PUBLIC        P4_2
  B:0080H.7       PUBLIC        P0_7
  B:00B0H.6       PUBLIC        P3_6
  B:00C8H.5       PUBLIC        P5_5
  C:6FC1H         PUBLIC        init_params
  C:847DH         PUBLIC        clock_ini
  C:7E36H         SYMBOL        portddr_set
  D:00BDH         PUBLIC        WDTC
  D:0098H         PUBLIC        SCON
BL51 BANKED LINKER/LOCATER V6.22.2.0                                                  07/13/2018  15:19:21  PAGE 18


  D:0089H         PUBLIC        TMOD
  D:0088H         PUBLIC        TCON
  C:000EH         PUBLIC        feed_wdg
  D:008FH         PUBLIC        CLKCON
  C:7B69H         PUBLIC        _InitialUART1
  C:78C1H         PUBLIC        _InitialUART2
  D:00B8H         PUBLIC        IE1
  C:803CH         PUBLIC        ini
  B:00A8H.1       PUBLIC        ET0
  B:00A8H.4       PUBLIC        ES1
  D:00A9H         PUBLIC        IP0
  B:00A8H.3       PUBLIC        ET1
  B:00A8H.6       PUBLIC        ES2
  D:00AAH         PUBLIC        IP1
  D:008CH         PUBLIC        TH0
  D:008DH         PUBLIC        TH1
  D:008AH         PUBLIC        TL0
  D:008BH         PUBLIC        TL1
  D:008EH         PUBLIC        CLKSWR
  C:85DAH         PUBLIC        wdg_ini
  D:009EH         PUBLIC        SCON2
  C:8559H         SYMBOL        Exti1_ini
  C:84D6H         SYMBOL        timer0_ini
  C:84F1H         PUBLIC        timer1_ini
  D:00D0H         PUBLIC        PSW
  -------         PROC          PORTDDR_SET
  C:7E36H         LINE#         13
  C:7E36H         LINE#         14
  C:7E36H         LINE#         17
  C:7E3CH         LINE#         18
  C:7E3EH         LINE#         19
  C:7E42H         LINE#         20
  C:7E44H         LINE#         21
  C:7E46H         LINE#         22
  C:7E48H         LINE#         23
  C:7E4AH         LINE#         24
  C:7E4CH         LINE#         26
  C:7E50H         LINE#         27
  C:7E52H         LINE#         28
  C:7E54H         LINE#         29
  C:7E58H         LINE#         30
  C:7E5AH         LINE#         31
  C:7E5EH         LINE#         33
  C:7E64H         LINE#         34
  C:7E66H         LINE#         35
  C:7E6AH         LINE#         36
  C:7E6EH         LINE#         38
  C:7E72H         LINE#         39
  C:7E76H         LINE#         40
  C:7E7AH         LINE#         41
  C:7E7EH         LINE#         42
  C:7E80H         LINE#         44
  C:7E84H         LINE#         45
  C:7E86H         LINE#         46
  C:7E88H         LINE#         48
  C:7E8CH         LINE#         49
  C:7E8EH         LINE#         50
BL51 BANKED LINKER/LOCATER V6.22.2.0                                                  07/13/2018  15:19:21  PAGE 19


  C:7E90H         LINE#         51
  C:7E92H         LINE#         52
  -------         ENDPROC       PORTDDR_SET
  -------         PROC          EXTI1_INI
  C:8559H         LINE#         56
  C:8559H         LINE#         57
  C:8559H         LINE#         59
  C:8560H         LINE#         60
  C:8566H         LINE#         61
  C:8569H         LINE#         62
  C:856CH         LINE#         63
  C:856EH         LINE#         64
  -------         ENDPROC       EXTI1_INI
  -------         PROC          TIMER0_INI
  C:84D6H         LINE#         67
  C:84D6H         LINE#         68
  C:84D6H         LINE#         71
  C:84DDH         LINE#         72
  C:84E0H         LINE#         73
  C:84E3H         LINE#         74
  C:84E6H         LINE#         75
  C:84E8H         LINE#         76
  C:84EBH         LINE#         77
  C:84EEH         LINE#         78
  C:84F0H         LINE#         79
  -------         ENDPROC       TIMER0_INI
  -------         PROC          WDG_INI
  C:85DAH         LINE#         80
  C:85DAH         LINE#         81
  C:85DAH         LINE#         85
  C:85DFH         LINE#         87
  C:85E2H         LINE#         92
  C:85E5H         LINE#         94
  -------         ENDPROC       WDG_INI
  -------         PROC          FEED_WDG
  C:000EH         LINE#         95
  C:000EH         LINE#         96
  C:000EH         LINE#         97
  C:0011H         LINE#         99
  -------         ENDPROC       FEED_WDG
  -------         PROC          CLOCK_INI
  C:847DH         LINE#         100
  C:847DH         LINE#         101
  C:847DH         LINE#         102
  C:8482H         LINE#         103
  C:8485H         LINE#         104
  C:848DH         LINE#         105
  C:8490H         LINE#         106
  C:8496H         LINE#         107
  C:849CH         LINE#         108
  -------         ENDPROC       CLOCK_INI
  -------         PROC          TIMER1_INI
  C:84F1H         LINE#         109
  C:84F1H         LINE#         110
  C:84F1H         LINE#         113
  C:84F8H         LINE#         114
  C:84FBH         LINE#         115
BL51 BANKED LINKER/LOCATER V6.22.2.0                                                  07/13/2018  15:19:21  PAGE 20


  C:84FEH         LINE#         116
  C:8501H         LINE#         117
  C:8503H         LINE#         118
  C:8506H         LINE#         119
  C:8509H         LINE#         121
  C:850BH         LINE#         122
  -------         ENDPROC       TIMER1_INI
  -------         PROC          _INITIALUART1
  X:01EEH         SYMBOL        u32Baudrate
  C:7B69H         LINE#         123
  C:7B6FH         LINE#         124
  C:7B6FH         LINE#         126
  C:7B75H         LINE#         127
  C:7B78H         LINE#         128
  C:7BA7H         LINE#         129
  C:7BC6H         LINE#         130
  C:7BC9H         LINE#         131
  C:7BCCH         LINE#         132
  C:7BCEH         LINE#         133
  C:7BD1H         LINE#         134
  C:7BD3H         LINE#         135
  -------         ENDPROC       _INITIALUART1
  -------         PROC          _INITIALUART2
  X:01EEH         SYMBOL        u32Baudrate
  C:78C1H         LINE#         136
  C:78C7H         LINE#         137
  C:78C7H         LINE#         139
  C:78CDH         LINE#         140
  C:78D0H         LINE#         141
  C:7902H         LINE#         142
  C:7923H         LINE#         143
  C:7929H         LINE#         144
  C:792FH         LINE#         145
  C:7931H         LINE#         146
  C:7934H         LINE#         147
  C:7936H         LINE#         148
  -------         ENDPROC       _INITIALUART2
  -------         PROC          INIT_PARAMS
  C:6FC1H         LINE#         161
  C:6FC1H         LINE#         162
  C:6FC1H         LINE#         163
  C:6FC7H         LINE#         164
  C:6FC9H         LINE#         166
  C:6FCCH         LINE#         169
  C:6FE4H         LINE#         170
  C:6FE4H         LINE#         171
  C:6FEAH         LINE#         172
  C:6FEAH         LINE#         174
  C:7002H         LINE#         175
  C:7002H         LINE#         176
  C:7008H         LINE#         177
  C:7008H         LINE#         178
  C:7020H         LINE#         179
  C:7020H         LINE#         180
  C:7026H         LINE#         181
  C:7026H         LINE#         187
  C:703EH         LINE#         188
BL51 BANKED LINKER/LOCATER V6.22.2.0                                                  07/13/2018  15:19:21  PAGE 21


  C:703EH         LINE#         189
  C:7044H         LINE#         190
  C:7044H         LINE#         192
  C:705CH         LINE#         193
  C:705CH         LINE#         194
  C:7062H         LINE#         195
  C:7062H         LINE#         200
  C:707AH         LINE#         201
  C:707AH         LINE#         202
  C:7080H         LINE#         203
  C:7080H         LINE#         214
  C:7086H         LINE#         215
  C:7086H         LINE#         216
  C:7089H         LINE#         217
  C:7089H         LINE#         218
  -------         ENDPROC       INIT_PARAMS
  -------         PROC          INI
  C:803CH         LINE#         220
  C:803CH         LINE#         221
  C:803CH         LINE#         236
  C:803FH         LINE#         237
  C:8045H         LINE#         238
  C:8048H         LINE#         240
  C:804BH         LINE#         241
  C:804EH         LINE#         242
  C:8051H         LINE#         243
  C:805CH         LINE#         244
  C:8067H         LINE#         245
  C:806AH         LINE#         248
  C:806DH         LINE#         251
  C:8070H         LINE#         253
  C:807AH         LINE#         255
  C:807DH         LINE#         257
  -------         ENDPROC       INI
  -------         ENDMOD        INI

  -------         MODULE        MAIN
  C:0000H         SYMBOL        _ICE_DUMMY_
  D:0080H         PUBLIC        P0
  D:0090H         PUBLIC        P1
  D:00A0H         PUBLIC        P2
  D:00B0H         PUBLIC        P3
  D:00C0H         PUBLIC        P4
  D:00C8H         PUBLIC        P5
  X:02C7H         PUBLIC        power_board_version
  D:00A8H         PUBLIC        IE
  X:02C8H         PUBLIC        fixed_mode_speed
  B:0080H.3       PUBLIC        P0_3
  D:00F8H         PUBLIC        RSTFR
  X:02C9H         PUBLIC        cnt_rec2
  X:02CAH         PUBLIC        machine_volt_motor
  X:02CBH         PUBLIC        fixed_start_speed
  X:02CCH         PUBLIC        waiting_cnt
  X:02CDH         PUBLIC        user_speed_target
  X:02CEH         PUBLIC        cnt_tra2
  X:02CFH         PUBLIC        pcrxd
  X:02F2H         PUBLIC        goal_value
BL51 BANKED LINKER/LOCATER V6.22.2.0                                                  07/13/2018  15:19:21  PAGE 22


  X:02F4H         PUBLIC        pctxd
  C:7FEEH         PUBLIC        main
  X:030DH         PUBLIC        error_code
  X:030FH         PUBLIC        goal_status
  X:0310H         PUBLIC        flag_disp
  X:0311H         PUBLIC        user_request
  D:0098H         PUBLIC        SCON
  D:0088H         PUBLIC        TCON
  B:0021H.1       PUBLIC        flag_auto
  X:0312H         PUBLIC        machine_speed_target
  X:0313H         PUBLIC        pccom_cnt
  X:0314H         PUBLIC        dc_motor_rating_f1
  D:00B8H         PUBLIC        IE1
  X:0315H         PUBLIC        speed_limit_max
  B:0021H.2       PUBLIC        pcerr_com
  X:0316H         PUBLIC        goal_type
  X:0317H         PUBLIC        user_steps
  X:0319H         PUBLIC        user_steps_pause
  X:031BH         PUBLIC        machine_current_motor
  X:031CH         PUBLIC        user_steps_total
  B:0021H.3       PUBLIC        machine_state
  X:031EH         PUBLIC        user_rpm_target
  B:0021H.4       PUBLIC        tutorial_finish
  B:0021H.5       PUBLIC        factory_finish
  X:0320H         PUBLIC        acceleration_param
  X:0321H         PUBLIC        user_steps_last
  X:0323H         PUBLIC        dc_motor_rating_volt
  B:0021H.6       PUBLIC        pcorder
  X:0324H         PUBLIC        machine_rpm_target
  B:0021H.7       PUBLIC        max_speed_unlocked
  B:0022H.0       PUBLIC        waiting
  D:00D0H         PUBLIC        PSW
  X:0326H         PUBLIC        dc_motor_startup_volt
  -------         PROC          MAIN
  C:7FEEH         LINE#         29
  C:7FEEH         LINE#         30
  C:7FEEH         LINE#         31
  C:7FF1H         LINE#         32
  C:7FF1H         LINE#         33
  C:7FF1H         LINE#         34
  C:7FF3H         LINE#         35
  C:7FF6H         LINE#         36
  C:7FF9H         LINE#         37
  C:7FFCH         LINE#         38
  C:7FFFH         LINE#         39
  C:8002H         LINE#         40
  C:8005H         LINE#         42
  C:8008H         LINE#         43
  C:8008H         LINE#         44
  C:800BH         LINE#         45
  C:800DH         LINE#         47
  C:800DH         LINE#         48
  C:8010H         LINE#         49
  C:8010H         LINE#         51
  C:8013H         LINE#         52
  C:8016H         LINE#         53
  C:8019H         LINE#         54
BL51 BANKED LINKER/LOCATER V6.22.2.0                                                  07/13/2018  15:19:21  PAGE 23


  C:801CH         LINE#         57
  C:801FH         LINE#         62
  C:8022H         LINE#         63
  C:8025H         LINE#         65
  C:8032H         LINE#         66
  C:8032H         LINE#         67
  C:8033H         LINE#         68
  C:8035H         LINE#         69
  C:803AH         LINE#         70
  -------         ENDPROC       MAIN
  -------         ENDMOD        MAIN

  -------         MODULE        BEEP
  C:0000H         SYMBOL        _ICE_DUMMY_
  C:8598H         SYMBOL        beep_setting
  X:03FBH         SYMBOL        beep_on_cnt
  X:03FCH         SYMBOL        beep_number
  B:0022H.4       SYMBOL        beep_request
  C:720DH         PUBLIC        buzzcon
  B:0022H.5       PUBLIC        flag_beep
  C:0003H         PUBLIC        _beep
  X:03FDH         SYMBOL        beepmode
  X:03FEH         SYMBOL        beep_off_cnt
  -------         PROC          _BEEP
  D:0007H         SYMBOL        beepm
  C:0003H         LINE#         44
  C:0003H         LINE#         45
  C:0003H         LINE#         46
  C:0008H         LINE#         47
  C:000AH         LINE#         48
  -------         ENDPROC       _BEEP
  -------         PROC          BUZZCON
  C:720DH         LINE#         59
  C:720DH         LINE#         60
  C:720DH         LINE#         61
  C:7210H         LINE#         62
  C:7210H         LINE#         63
  C:7212H         LINE#         64
  C:722AH         LINE#         65
  C:723EH         LINE#         66
  C:7255H         LINE#         67
  C:7255H         LINE#         68
  C:7262H         LINE#         69
  C:7262H         LINE#         71
  C:7264H         LINE#         75
  C:7264H         LINE#         76
  C:7266H         LINE#         78
  C:7266H         LINE#         80
  C:7268H         LINE#         84
  C:7275H         LINE#         85
  C:7275H         LINE#         86
  C:7282H         LINE#         87
  C:7282H         LINE#         88
  C:7285H         LINE#         89
  C:7286H         LINE#         91
  C:7286H         LINE#         92
  C:728CH         LINE#         93
BL51 BANKED LINKER/LOCATER V6.22.2.0                                                  07/13/2018  15:19:21  PAGE 24


  C:72A2H         LINE#         94
  C:72B2H         LINE#         95
  C:72B2H         LINE#         96
  C:72B4H         LINE#         98
  C:72B4H         LINE#         99
  C:72B9H         LINE#         100
  C:72BDH         LINE#         101
  C:72BDH         LINE#         102
  C:72BDH         LINE#         103
  -------         ENDPROC       BUZZCON
  -------         ENDMOD        BEEP

  -------         MODULE        CONTROL
  C:0000H         SYMBOL        _ICE_DUMMY_
  D:0080H         PUBLIC        P0
  D:0090H         PUBLIC        P1
  D:00A0H         PUBLIC        P2
  D:00B0H         PUBLIC        P3
  D:00C0H         PUBLIC        P4
  D:00C8H         PUBLIC        P5
  D:00A8H         PUBLIC        IE
  D:00F8H         PUBLIC        RSTFR
  C:8397H         PUBLIC        useroperation
  C:7752H         PUBLIC        reset_data
  C:7EF0H         SYMBOL        time_calculation
  C:7C3FH         PUBLIC        speed_rpm_convert
  C:685DH         SYMBOL        dist_calculation
  C:5D37H         SYMBOL        prepare_statistic_data
  B:0023H.3       PUBLIC        run_in_prog_mode
  X:03CEH         PUBLIC        user_time_second
  D:0098H         PUBLIC        SCON
  D:0088H         PUBLIC        TCON
  D:00B8H         PUBLIC        IE1
  X:03CFH         PUBLIC        user_time_minute
  X:03D1H         PUBLIC        start_cnt
  X:03D2H         PUBLIC        userstate
  X:03D3H         SYMBOL        user_distance_saved
  C:7A1CH         PUBLIC        save_total_distance
  X:03D5H         PUBLIC        user_distance
  X:03D7H         PUBLIC        user_calories
  D:00D0H         PUBLIC        PSW
  -------         PROC          TIME_CALCULATION
  C:7EF0H         LINE#         38
  C:7EF0H         LINE#         39
  C:7EF0H         LINE#         40
  C:7F0BH         LINE#         43
  C:7F0BH         LINE#         44
  C:7F11H         LINE#         45
  C:7F1BH         LINE#         46
  C:7F1BH         LINE#         47
  C:7F1DH         LINE#         48
  C:7F2BH         LINE#         50
  C:7F3AH         LINE#         51
  C:7F3AH         LINE#         52
  C:7F3FH         LINE#         53
  C:7F42H         LINE#         54
  C:7F45H         LINE#         55
BL51 BANKED LINKER/LOCATER V6.22.2.0                                                  07/13/2018  15:19:21  PAGE 25


  C:7F45H         LINE#         56
  C:7F45H         LINE#         57
  C:7F45H         LINE#         58
  -------         ENDPROC       TIME_CALCULATION
  -------         PROC          PREPARE_STATISTIC_DATA
  -------         DO            
  X:01EEH         SYMBOL        temp16
  -------         ENDDO         
  C:5D37H         LINE#         60
  C:5D37H         LINE#         61
  C:5D37H         LINE#         64
  C:5D4FH         LINE#         65
  C:5D4FH         LINE#         66
  C:5D7FH         LINE#         67
  C:5D7FH         LINE#         68
  C:5D9AH         LINE#         69
  C:5DA2H         LINE#         71
  C:5DC3H         LINE#         72
  C:5DD5H         LINE#         74
  C:5DF1H         LINE#         75
  C:5DF9H         LINE#         77
  C:5E19H         LINE#         78
  C:5E2CH         LINE#         79
  C:5E34H         LINE#         81
  C:5E40H         LINE#         83
  C:5E4DH         LINE#         84
  C:5E58H         LINE#         85
  C:5E67H         LINE#         86
  C:5E70H         LINE#         87
  C:5E76H         LINE#         89
  C:5E7AH         LINE#         91
  C:5E81H         LINE#         92
  C:5E81H         LINE#         94
  C:5EA1H         LINE#         95
  C:5EA1H         LINE#         96
  C:5EC1H         LINE#         97
  C:5ED6H         LINE#         98
  C:5EDEH         LINE#         99
  C:5EE6H         LINE#         101
  C:5EEDH         LINE#         102
  C:5EEDH         LINE#         103
  C:5EEDH         LINE#         104
  -------         ENDPROC       PREPARE_STATISTIC_DATA
  -------         PROC          DIST_CALCULATION
  -------         DO            
  X:03CCH         SYMBOL        user_distance_10m_dist
  -------         ENDDO         
  C:685DH         LINE#         106
  C:685DH         LINE#         107
  C:685DH         LINE#         110
  C:6866H         LINE#         111
  C:6866H         LINE#         112
  C:6873H         LINE#         113
  C:6873H         LINE#         114
  C:6879H         LINE#         115
  C:6879H         LINE#         116
  C:687AH         LINE#         117
BL51 BANKED LINKER/LOCATER V6.22.2.0                                                  07/13/2018  15:19:21  PAGE 26


  C:689CH         LINE#         120
  C:689CH         LINE#         121
  C:68B6H         LINE#         122
  C:68BFH         LINE#         123
  C:68BFH         LINE#         124
  C:68D1H         LINE#         125
  C:68DEH         LINE#         126
  C:68DEH         LINE#         127
  C:68ECH         LINE#         128
  C:68FAH         LINE#         130
  C:6909H         LINE#         131
  C:6909H         LINE#         132
  C:690EH         LINE#         133
  C:6911H         LINE#         134
  C:6914H         LINE#         135
  C:6914H         LINE#         136
  C:6914H         LINE#         137
  C:6967H         LINE#         139
  C:696AH         LINE#         140
  C:696AH         LINE#         141
  C:696AH         LINE#         142
  -------         ENDPROC       DIST_CALCULATION
  -------         PROC          SPEED_RPM_CONVERT
  -------         DO            
  D:0006H         SYMBOL        tempi
  -------         ENDDO         
  C:7C3FH         LINE#         153
  C:7C3FH         LINE#         154
  C:7C3FH         LINE#         156
  C:7C4FH         LINE#         157
  C:7C4FH         LINE#         158
  C:7C57H         LINE#         159
  C:7C5CH         LINE#         160
  C:7C5FH         LINE#         161
  C:7C66H         LINE#         162
  C:7C68H         LINE#         164
  C:7C68H         LINE#         165
  C:7C6FH         LINE#         166
  C:7C6FH         LINE#         168
  C:7C84H         LINE#         169
  C:7CA0H         LINE#         170
  C:7CA5H         LINE#         171
  -------         ENDPROC       SPEED_RPM_CONVERT
  -------         PROC          RESET_DATA
  C:7752H         LINE#         173
  C:7752H         LINE#         174
  C:7752H         LINE#         175
  C:7759H         LINE#         176
  C:775DH         LINE#         178
  C:7763H         LINE#         179
  C:7769H         LINE#         180
  C:7773H         LINE#         182
  C:777AH         LINE#         183
  C:7780H         LINE#         185
  C:7784H         LINE#         188
  C:778AH         LINE#         189
  C:7790H         LINE#         190
BL51 BANKED LINKER/LOCATER V6.22.2.0                                                  07/13/2018  15:19:21  PAGE 27


  C:7796H         LINE#         192
  C:779CH         LINE#         193
  C:77A2H         LINE#         194
  C:77A8H         LINE#         195
  C:77B2H         LINE#         196
  C:77B9H         LINE#         197
  C:77BFH         LINE#         198
  C:77C5H         LINE#         199
  C:77CBH         LINE#         200
  C:77CFH         LINE#         201
  -------         ENDPROC       RESET_DATA
  -------         PROC          SAVE_TOTAL_DISTANCE
  C:7A1CH         LINE#         203
  C:7A1CH         LINE#         204
  C:7A1CH         LINE#         205
  C:7A31H         LINE#         206
  C:7A31H         LINE#         207
  C:7A60H         LINE#         208
  C:7A6FH         LINE#         209
  C:7A8AH         LINE#         210
  C:7A8AH         LINE#         211
  -------         ENDPROC       SAVE_TOTAL_DISTANCE
  -------         PROC          USEROPERATION
  C:8397H         LINE#         219
  C:8397H         LINE#         220
  C:8397H         LINE#         221
  C:83A7H         LINE#         222
  C:83A7H         LINE#         223
  C:83AAH         LINE#         224
  C:83ADH         LINE#         225
  C:83ADH         LINE#         227
  C:83B0H         LINE#         228
  C:83B3H         LINE#         229
  C:83B3H         LINE#         230
  C:83B6H         LINE#         231
  C:83B8H         LINE#         233
  C:83B8H         LINE#         234
  C:83BBH         LINE#         235
  C:83BBH         LINE#         236
  C:83BEH         LINE#         237
  -------         ENDPROC       USEROPERATION
  -------         ENDMOD        CONTROL

  -------         MODULE        EEPROM
  C:0000H         SYMBOL        _ICE_DUMMY_
  D:0080H         PUBLIC        P0
  D:0090H         PUBLIC        P1
  D:00A0H         PUBLIC        P2
  D:00B0H         PUBLIC        P3
  D:00C0H         PUBLIC        P4
  D:00C8H         PUBLIC        P5
  B:00A8H.7       PUBLIC        EA
  C:639EH         PUBLIC        eeprom_read
  D:00A8H         PUBLIC        IE
  D:00FCH         PUBLIC        IAP_CMD
  X:016EH         PUBLIC        eeprom_buff
  D:00F8H         PUBLIC        RSTFR
BL51 BANKED LINKER/LOCATER V6.22.2.0                                                  07/13/2018  15:19:21  PAGE 28


  C:81ABH         PUBLIC        _eeprom_write_long
  C:850CH         PUBLIC        _Flash_EraseBlock
  D:0098H         PUBLIC        SCON
  D:0088H         PUBLIC        TCON
  D:00B8H         PUBLIC        IE1
  C:8086H         PUBLIC        _eeprom_write_int
  D:00FBH         PUBLIC        IAP_DATA
  D:00F9H         PUBLIC        IAP_ADDR
  C:7937H         PUBLIC        eeprom_factory
  C:784AH         PUBLIC        _eeprom_wrchar
  D:00D0H         PUBLIC        PSW
  -------         PROC          _FLASH_ERASEBLOCK
  D:0006H         SYMBOL        addr
  C:850CH         LINE#         29
  C:850CH         LINE#         30
  C:850CH         LINE#         31
  C:850EH         LINE#         32
  C:8514H         LINE#         33
  C:8518H         LINE#         34
  C:851EH         LINE#         35
  C:8524H         LINE#         36
  C:8526H         LINE#         37
  -------         ENDPROC       _FLASH_ERASEBLOCK
  -------         PROC          _EEPROM_WRCHAR
  D:0002H         SYMBOL        addr
  D:0005H         SYMBOL        ucdata
  -------         DO            
  D:0007H         SYMBOL        i
  -------         ENDDO         
  C:784AH         LINE#         43
  C:784EH         LINE#         44
  C:784EH         LINE#         48
  C:785AH         LINE#         49
  C:786FH         LINE#         50
  C:7876H         LINE#         52
  C:7882H         LINE#         53
  C:7884H         LINE#         54
  C:788EH         LINE#         55
  C:788EH         LINE#         56
  C:7896H         LINE#         58
  C:78A3H         LINE#         59
  C:78A9H         LINE#         60
  C:78ADH         LINE#         61
  C:78B3H         LINE#         62
  C:78B9H         LINE#         63
  C:78BCH         LINE#         64
  C:78BEH         LINE#         75
  C:78C0H         LINE#         76
  -------         ENDPROC       _EEPROM_WRCHAR
  -------         PROC          _EEPROM_WRITE_LONG
  X:01F9H         SYMBOL        addr
  X:01FBH         SYMBOL        ucdata
  -------         DO            
  X:01FFH         SYMBOL        i
  -------         ENDDO         
  C:81ABH         LINE#         78
  C:81B3H         LINE#         79
BL51 BANKED LINKER/LOCATER V6.22.2.0                                                  07/13/2018  15:19:21  PAGE 29


  C:81B3H         LINE#         81
  C:81C5H         LINE#         82
  C:81C5H         LINE#         83
  C:81E8H         LINE#         84
  C:81F0H         LINE#         85
  -------         ENDPROC       _EEPROM_WRITE_LONG
  -------         PROC          _EEPROM_WRITE_INT
  X:01F9H         SYMBOL        addr
  X:01FBH         SYMBOL        ucdata
  -------         DO            
  X:01FDH         SYMBOL        i
  -------         ENDDO         
  C:8086H         LINE#         87
  C:8094H         LINE#         88
  C:8094H         LINE#         90
  C:80A4H         LINE#         91
  C:80A4H         LINE#         92
  C:80C7H         LINE#         93
  C:80CFH         LINE#         94
  -------         ENDPROC       _EEPROM_WRITE_INT
  -------         PROC          EEPROM_READ
  C:639EH         LINE#         96
  C:639EH         LINE#         97
  C:639EH         LINE#         98
  C:63E4H         LINE#         99
  C:63EDH         LINE#         100
  C:63F6H         LINE#         101
  C:63FFH         LINE#         102
  C:6408H         LINE#         103
  C:640CH         LINE#         104
  C:640CH         LINE#         105
  C:640EH         LINE#         106
  C:640EH         LINE#         107
  C:6417H         LINE#         108
  C:6420H         LINE#         109
  C:6429H         LINE#         110
  C:6430H         LINE#         111
  C:6439H         LINE#         112
  C:6440H         LINE#         113
  C:6447H         LINE#         114
  C:644EH         LINE#         116
  C:6457H         LINE#         117
  C:646BH         LINE#         119
  C:647FH         LINE#         120
  C:64C5H         LINE#         121
  C:64D9H         LINE#         122
  C:64EDH         LINE#         123
  -------         ENDPROC       EEPROM_READ
  -------         PROC          EEPROM_FACTORY
  -------         DO            
  X:01EEH         SYMBOL        addr
  -------         ENDDO         
  C:7937H         LINE#         125
  C:7937H         LINE#         126
  C:7937H         LINE#         129
  C:7950H         LINE#         130
  C:7965H         LINE#         131
BL51 BANKED LINKER/LOCATER V6.22.2.0                                                  07/13/2018  15:19:21  PAGE 30


  C:797FH         LINE#         132
  C:7994H         LINE#         134
  C:799DH         LINE#         135
  C:79A4H         LINE#         136
  -------         ENDPROC       EEPROM_FACTORY
  -------         ENDMOD        EEPROM

  -------         MODULE        ERROR
  C:0000H         SYMBOL        _ICE_DUMMY_
  D:0080H         PUBLIC        P0
  D:0090H         PUBLIC        P1
  D:00A0H         PUBLIC        P2
  D:00B0H         PUBLIC        P3
  D:00C0H         PUBLIC        P4
  D:00C8H         PUBLIC        P5
  X:0399H         SYMBOL        current
  C:3D72H         PUBLIC        detect_error
  D:00A8H         PUBLIC        IE
  B:0080H.0       PUBLIC        P0_0
  D:00FCH         PUBLIC        IAP_CMD
  D:00F8H         PUBLIC        RSTFR
  X:039DH         SYMBOL        powers
  X:03A7H         SYMBOL        power
  D:0098H         PUBLIC        SCON
  D:0088H         PUBLIC        TCON
  D:00B8H         PUBLIC        IE1
  X:03ABH         PUBLIC        error_time
  B:0023H.4       PUBLIC        skip_error
  X:03AFH         SYMBOL        cp_index
  X:03B0H         PUBLIC        error_id
  X:03B1H         SYMBOL        cp_count
  D:00D0H         PUBLIC        PSW
  X:03B3H         SYMBOL        currents
  -------         PROC          DETECT_ERROR
  -------         DO            
  X:0398H         SYMBOL        error_id_last
  D:0007H         SYMBOL        i
  X:01EEH         SYMBOL        curr_time
  -------         ENDDO         
  C:3D72H         LINE#         41
  C:3D72H         LINE#         42
  C:3D72H         LINE#         46
  C:3D7BH         LINE#         48
  C:3D8CH         LINE#         49
  C:3D8CH         LINE#         50
  C:3E11H         LINE#         51
  C:3E11H         LINE#         52
  C:3E1AH         LINE#         53
  C:3E2BH         LINE#         56
  C:3E31H         LINE#         57
  C:3E37H         LINE#         58
  C:3E37H         LINE#         59
  C:3E3AH         LINE#         61
  C:3E3AH         LINE#         62
  C:3E6CH         LINE#         63
  C:3E6CH         LINE#         64
  C:3E80H         LINE#         65
BL51 BANKED LINKER/LOCATER V6.22.2.0                                                  07/13/2018  15:19:21  PAGE 31


  C:3EADH         LINE#         66
  C:3EE0H         LINE#         67
  C:3EEAH         LINE#         68
  C:3EF4H         LINE#         69
  C:3F07H         LINE#         70
  C:3F13H         LINE#         71
  C:3F13H         LINE#         72
  C:3F2CH         LINE#         73
  C:3F49H         LINE#         74
  C:3F4CH         LINE#         75
  C:3F63H         LINE#         76
  C:3F7AH         LINE#         84
  C:3FA6H         LINE#         85
  C:3FA6H         LINE#         86
  C:3FACH         LINE#         87
  C:3FACH         LINE#         88
  C:3FB7H         LINE#         89
  C:3FB7H         LINE#         90
  C:3FD5H         LINE#         91
  C:3FEEH         LINE#         92
  C:3FEEH         LINE#         93
  C:4013H         LINE#         94
  C:401FH         LINE#         95
  C:403AH         LINE#         96
  C:403AH         LINE#         97
  C:403AH         LINE#         99
  C:4041H         LINE#         100
  C:4047H         LINE#         101
  C:404DH         LINE#         102
  C:404DH         LINE#         103
  C:4076H         LINE#         104
  C:40A7H         LINE#         105
  C:40B5H         LINE#         106
  C:40B5H         LINE#         108
  C:40B8H         LINE#         109
  C:40B8H         LINE#         110
  C:40C1H         LINE#         111
  C:40C1H         LINE#         113
  C:40E8H         LINE#         114
  C:40E8H         LINE#         115
  C:40F3H         LINE#         116
  C:40F3H         LINE#         117
  C:40F9H         LINE#         118
  C:40FBH         LINE#         119
  C:40FFH         LINE#         120
  C:40FFH         LINE#         121
  C:4105H         LINE#         122
  C:4107H         LINE#         123
  C:410BH         LINE#         124
  C:410BH         LINE#         125
  C:4111H         LINE#         126
  C:4113H         LINE#         127
  C:4117H         LINE#         128
  C:4117H         LINE#         129
  C:4117H         LINE#         130
  C:4119H         LINE#         131
  C:411DH         LINE#         132
BL51 BANKED LINKER/LOCATER V6.22.2.0                                                  07/13/2018  15:19:21  PAGE 32


  C:411DH         LINE#         133
  C:4123H         LINE#         134
  C:4125H         LINE#         135
  C:4129H         LINE#         136
  C:4129H         LINE#         137
  C:412FH         LINE#         138
  C:4131H         LINE#         139
  C:413EH         LINE#         140
  C:413EH         LINE#         141
  C:4144H         LINE#         142
  C:4144H         LINE#         144
  C:4150H         LINE#         145
  C:4150H         LINE#         146
  C:4157H         LINE#         147
  C:415CH         LINE#         148
  C:415EH         LINE#         149
  C:415EH         LINE#         166
  C:4160H         LINE#         167
  C:4166H         LINE#         168
  C:4166H         LINE#         169
  C:416BH         LINE#         170
  C:416DH         LINE#         171
  C:416DH         LINE#         173
  C:4175H         LINE#         174
  -------         ENDPROC       DETECT_ERROR
  -------         ENDMOD        ERROR

  -------         MODULE        FACTORY
  C:0000H         SYMBOL        _ICE_DUMMY_
  D:0080H         PUBLIC        P0
  D:0090H         PUBLIC        P1
  D:00A0H         PUBLIC        P2
  D:00B0H         PUBLIC        P3
  D:00C0H         PUBLIC        P4
  D:00C8H         PUBLIC        P5
  D:00A8H         PUBLIC        IE
  B:0080H.0       PUBLIC        P0_0
  B:0090H.0       PUBLIC        P1_0
  B:0090H.1       PUBLIC        P1_1
  D:00F8H         PUBLIC        RSTFR
  B:00C0H.2       PUBLIC        P4_2
  B:00C8H.5       PUBLIC        P5_5
  C:661EH         SYMBOL        FactoryTestKeys
  B:0023H.5       PUBLIC        global_fan_test
  D:0098H         PUBLIC        SCON
  D:0088H         PUBLIC        TCON
  C:47E9H         PUBLIC        FactoryTestOperation
  D:00B8H         PUBLIC        IE1
  X:0400H         SYMBOL        teststate
  C:7BD4H         PUBLIC        show_net_state
  D:00D0H         PUBLIC        PSW
  -------         PROC          SHOW_NET_STATE
  C:7BD4H         LINE#         33
  C:7BD4H         LINE#         34
  C:7BD4H         LINE#         35
  C:7BF9H         LINE#         36
  C:7BF9H         LINE#         37
BL51 BANKED LINKER/LOCATER V6.22.2.0                                                  07/13/2018  15:19:21  PAGE 33


  C:7BF9H         LINE#         38
  C:7BF9H         LINE#         39
  C:7BFFH         LINE#         40
  C:7C07H         LINE#         41
  C:7C0EH         LINE#         42
  C:7C0FH         LINE#         43
  C:7C0FH         LINE#         44
  C:7C11H         LINE#         45
  C:7C12H         LINE#         46
  C:7C12H         LINE#         47
  C:7C12H         LINE#         48
  C:7C18H         LINE#         49
  C:7C1AH         LINE#         50
  C:7C1AH         LINE#         51
  C:7C33H         LINE#         52
  C:7C33H         LINE#         53
  C:7C33H         LINE#         54
  C:7C3EH         LINE#         55
  C:7C3EH         LINE#         56
  C:7C3EH         LINE#         57
  -------         ENDPROC       SHOW_NET_STATE
  -------         PROC          FACTORYTESTKEYS
  C:661EH         LINE#         59
  C:661EH         LINE#         60
  C:661EH         LINE#         61
  C:6621H         LINE#         63
  C:6635H         LINE#         64
  C:6635H         LINE#         65
  C:6637H         LINE#         67
  C:6648H         LINE#         68
  C:6648H         LINE#         69
  C:664DH         LINE#         70
  C:664FH         LINE#         71
  C:6654H         LINE#         72
  C:6669H         LINE#         73
  C:6669H         LINE#         74
  C:6669H         LINE#         75
  C:6673H         LINE#         76
  C:6675H         LINE#         77
  C:6675H         LINE#         78
  C:667AH         LINE#         79
  C:667FH         LINE#         80
  C:6685H         LINE#         83
  C:668CH         LINE#         84
  C:6691H         LINE#         85
  C:6694H         LINE#         86
  C:6696H         LINE#         87
  C:6696H         LINE#         88
  C:669CH         LINE#         89
  C:669CH         LINE#         90
  C:66A2H         LINE#         91
  C:66A2H         LINE#         92
  C:66A4H         LINE#         93
  C:66A4H         LINE#         94
  C:66AEH         LINE#         95
  C:66B4H         LINE#         96
  C:66BAH         LINE#         98
BL51 BANKED LINKER/LOCATER V6.22.2.0                                                  07/13/2018  15:19:21  PAGE 34


  C:66BCH         LINE#         99
  C:66C2H         LINE#         100
  C:66C7H         LINE#         101
  C:66CDH         LINE#         102
  C:66CDH         LINE#         103
  C:66CDH         LINE#         105
  C:66D6H         LINE#         106
  C:66D6H         LINE#         107
  C:66E0H         LINE#         108
  C:66E0H         LINE#         109
  C:66ECH         LINE#         110
  C:66ECH         LINE#         111
  C:66F9H         LINE#         112
  C:66F9H         LINE#         113
  C:66FBH         LINE#         115
  C:66FBH         LINE#         116
  C:6701H         LINE#         117
  C:6701H         LINE#         119
  C:670DH         LINE#         120
  C:670DH         LINE#         121
  C:670DH         LINE#         122
  C:6727H         LINE#         123
  C:6727H         LINE#         144
  C:6733H         LINE#         145
  C:6733H         LINE#         146
  C:6738H         LINE#         147
  C:673AH         LINE#         148
  C:6740H         LINE#         149
  C:6740H         LINE#         150
  C:6740H         LINE#         151
  C:6740H         LINE#         152
  -------         ENDPROC       FACTORYTESTKEYS
  -------         PROC          FACTORYTESTOPERATION
  -------         DO            
  X:03FFH         SYMBOL        laststate
  -------         ENDDO         
  C:47E9H         LINE#         156
  C:47E9H         LINE#         157
  C:47E9H         LINE#         160
  C:47EFH         LINE#         161
  C:47EFH         LINE#         162
  C:47F4H         LINE#         163
  C:480CH         LINE#         164
  C:482AH         LINE#         165
  C:482AH         LINE#         166
  C:483DH         LINE#         167
  C:4840H         LINE#         169
  C:4840H         LINE#         171
  C:4843H         LINE#         172
  C:4843H         LINE#         173
  C:4846H         LINE#         174
  C:4848H         LINE#         175
  C:4850H         LINE#         176
  C:4850H         LINE#         177
  C:4853H         LINE#         178
  C:4855H         LINE#         179
  C:486AH         LINE#         180
BL51 BANKED LINKER/LOCATER V6.22.2.0                                                  07/13/2018  15:19:21  PAGE 35


  C:486AH         LINE#         181
  C:486DH         LINE#         182
  C:486DH         LINE#         184
  C:48A4H         LINE#         185
  C:48A4H         LINE#         186
  C:48A4H         LINE#         187
  C:48B6H         LINE#         188
  C:48B6H         LINE#         189
  C:48B8H         LINE#         190
  C:48BCH         LINE#         191
  C:48C0H         LINE#         192
  C:48CAH         LINE#         193
  C:48CCH         LINE#         194
  C:48D6H         LINE#         195
  C:48EBH         LINE#         196
  C:48EBH         LINE#         198
  C:48F3H         LINE#         199
  C:48F3H         LINE#         200
  C:48FAH         LINE#         201
  C:48FFH         LINE#         203
  C:48FFH         LINE#         204
  C:4900H         LINE#         205
  C:490DH         LINE#         206
  C:490DH         LINE#         207
  C:4910H         LINE#         208
  C:4913H         LINE#         210
  C:4913H         LINE#         212
  C:4913H         LINE#         213
  C:4919H         LINE#         214
  C:4919H         LINE#         215
  C:491AH         LINE#         216
  C:4929H         LINE#         217
  C:4929H         LINE#         218
  C:492EH         LINE#         219
  C:4939H         LINE#         220
  C:494EH         LINE#         221
  C:494EH         LINE#         223
  C:494EH         LINE#         224
  C:4954H         LINE#         225
  C:495AH         LINE#         226
  C:4960H         LINE#         227
  C:4960H         LINE#         228
  C:4961H         LINE#         229
  C:4961H         LINE#         230
  C:4966H         LINE#         231
  C:496EH         LINE#         232
  C:4970H         LINE#         233
  C:4970H         LINE#         234
  C:4975H         LINE#         235
  C:4981H         LINE#         236
  C:498CH         LINE#         237
  C:498CH         LINE#         238
  C:498CH         LINE#         239
  C:4991H         LINE#         240
  C:499BH         LINE#         241
  C:499CH         LINE#         242
  C:499CH         LINE#         243
BL51 BANKED LINKER/LOCATER V6.22.2.0                                                  07/13/2018  15:19:21  PAGE 36


  C:49A1H         LINE#         244
  C:49C0H         LINE#         245
  C:49E0H         LINE#         246
  C:49E0H         LINE#         247
  C:49E0H         LINE#         248
  C:49E3H         LINE#         249
  C:49E6H         LINE#         250
  C:49E6H         LINE#         251
  C:49E8H         LINE#         252
  C:49E8H         LINE#         253
  C:49E8H         LINE#         254
  C:49E8H         LINE#         255
  C:49EBH         LINE#         256
  C:49F1H         LINE#         257
  C:49F4H         LINE#         258
  C:49F7H         LINE#         259
  C:49F7H         LINE#         260
  C:49FAH         LINE#         261
  C:49FAH         LINE#         263
  C:49FAH         LINE#         264
  C:49FFH         LINE#         265
  C:4A07H         LINE#         266
  C:4A07H         LINE#         267
  C:4A11H         LINE#         268
  C:4A14H         LINE#         269
  C:4A23H         LINE#         270
  C:4A23H         LINE#         271
  C:4A29H         LINE#         272
  C:4A31H         LINE#         273
  C:4A31H         LINE#         274
  C:4A33H         LINE#         275
  C:4A3BH         LINE#         276
  C:4A3BH         LINE#         277
  C:4A41H         LINE#         278
  C:4A43H         LINE#         279
  C:4A4DH         LINE#         280
  C:4A4DH         LINE#         281
  C:4A51H         LINE#         282
  C:4A53H         LINE#         284
  C:4A53H         LINE#         285
  C:4A5CH         LINE#         286
  C:4A5CH         LINE#         287
  C:4A6FH         LINE#         288
  C:4A6FH         LINE#         289
  C:4A6FH         LINE#         290
  C:4A6FH         LINE#         291
  C:4A7AH         LINE#         292
  C:4A7DH         LINE#         293
  C:4A83H         LINE#         294
  C:4A86H         LINE#         295
  C:4A86H         LINE#         296
  C:4A86H         LINE#         297
  C:4A91H         LINE#         298
  C:4A9CH         LINE#         299
  C:4AA1H         LINE#         300
  C:4AA2H         LINE#         301
  C:4AA2H         LINE#         302
BL51 BANKED LINKER/LOCATER V6.22.2.0                                                  07/13/2018  15:19:21  PAGE 37


  C:4AADH         LINE#         303
  C:4AB2H         LINE#         304
  C:4AB2H         LINE#         305
  C:4AB2H         LINE#         306
  -------         ENDPROC       FACTORYTESTOPERATION
  -------         ENDMOD        FACTORY

  -------         MODULE        FAN
  C:0000H         SYMBOL        _ICE_DUMMY_
  D:0080H         PUBLIC        P0
  D:0090H         PUBLIC        P1
  D:00A0H         PUBLIC        P2
  D:00B0H         PUBLIC        P3
  D:00C0H         PUBLIC        P4
  D:00C8H         PUBLIC        P5
  D:00A8H         PUBLIC        IE
  D:00F8H         PUBLIC        RSTFR
  D:0098H         PUBLIC        SCON
  D:0088H         PUBLIC        TCON
  D:00B8H         PUBLIC        IE1
  C:7F9BH         PUBLIC        getFanSpeed
  D:00D0H         PUBLIC        PSW
  -------         PROC          GETFANSPEED
  -------         DO            
  D:0007H         SYMBOL        sp
  -------         ENDDO         
  C:7F9BH         LINE#         7
  C:7F9BH         LINE#         8
  C:7F9BH         LINE#         10
  C:7FA9H         LINE#         11
  C:7FA9H         LINE#         12
  C:7FABH         LINE#         13
  C:7FACH         LINE#         14
  C:7FAFH         LINE#         15
  C:7FAFH         LINE#         16
  C:7FCBH         LINE#         17
  C:7FCBH         LINE#         18
  C:7FCDH         LINE#         19
  C:7FCEH         LINE#         26
  C:7FCEH         LINE#         27
  C:7FD1H         LINE#         28
  C:7FD1H         LINE#         29
  C:7FD3H         LINE#         30
  C:7FD4H         LINE#         31
  C:7FE2H         LINE#         32
  C:7FE2H         LINE#         33
  C:7FE4H         LINE#         34
  C:7FE5H         LINE#         36
  C:7FE5H         LINE#         37
  C:7FEDH         LINE#         38
  C:7FEDH         LINE#         39
  C:7FEDH         LINE#         41
  C:7FEDH         LINE#         42
  -------         ENDPROC       GETFANSPEED
  -------         ENDMOD        FAN

  -------         MODULE        IMAGE
BL51 BANKED LINKER/LOCATER V6.22.2.0                                                  07/13/2018  15:19:21  PAGE 38


  C:0000H         SYMBOL        _ICE_DUMMY_
  D:0080H         PUBLIC        P0
  D:0090H         PUBLIC        P1
  D:00A0H         PUBLIC        P2
  D:00B0H         PUBLIC        P3
  D:00C0H         PUBLIC        P4
  D:00C8H         PUBLIC        P5
  X:0327H         PUBLIC        image
  C:7F46H         PUBLIC        _disp_alternant_net
  D:00A8H         PUBLIC        IE
  D:00F8H         PUBLIC        RSTFR
  B:00C8H.5       PUBLIC        P5_5
  C:6F0DH         PUBLIC        ascii_2
  X:0357H         SYMBOL        _text
  C:827BH         PUBLIC        _disp_1f
  C:82BDH         PUBLIC        _disp_2f
  C:836AH         PUBLIC        _disp_matrix
  C:7D0DH         PUBLIC        _disp_custom
  D:0098H         PUBLIC        SCON
  D:0088H         PUBLIC        TCON
  C:72BEH         PUBLIC        _disp_alternant2_net
  D:00B8H         PUBLIC        IE1
  C:85AAH         PUBLIC        _disp_matrix_all
  C:6F0BH         PUBLIC        led_sizes
  C:5EEEH         PUBLIC        _disp_text
  C:83C1H         PUBLIC        _disp_ld
  C:8527H         PUBLIC        _disp_d
  X:035DH         PUBLIC        images
  D:00D0H         PUBLIC        PSW
  -------         PROC          _DISP_MATRIX_ALL
  D:0007H         SYMBOL        number
  C:85AAH         LINE#         105
  C:85AAH         LINE#         106
  C:85AAH         LINE#         107
  -------         ENDPROC       _DISP_MATRIX_ALL
  -------         PROC          _DISP_TEXT
  X:0226H         SYMBOL        text
  X:0229H         SYMBOL        ic
  -------         DO            
  X:022AH         SYMBOL        ptr
  D:0007H         SYMBOL        c
  X:022DH         SYMBOL        offset
  X:022EH         SYMBOL        ptr0
  -------         ENDDO         
  C:5EEEH         LINE#         116
  C:5EFCH         LINE#         117
  C:5EFCH         LINE#         120
  C:5F01H         LINE#         121
  C:5F24H         LINE#         123
  C:5F49H         LINE#         124
  C:5F49H         LINE#         125
  C:5F59H         LINE#         126
  C:5F59H         LINE#         127
  C:5F60H         LINE#         128
  C:5F62H         LINE#         130
  C:5F62H         LINE#         131
  C:5F69H         LINE#         132
BL51 BANKED LINKER/LOCATER V6.22.2.0                                                  07/13/2018  15:19:21  PAGE 39


  C:5F69H         LINE#         133
  C:5F75H         LINE#         134
  C:5F7BH         LINE#         136
  C:5F8FH         LINE#         138
  C:5FB8H         LINE#         139
  C:5FB8H         LINE#         140
  C:5FB8H         LINE#         141
  C:5FBBH         LINE#         142
  C:5FBBH         LINE#         143
  C:5FD1H         LINE#         144
  C:5FD1H         LINE#         145
  C:5FD3H         LINE#         146
  C:5FD3H         LINE#         147
  C:5FD7H         LINE#         148
  C:5FD7H         LINE#         149
  C:5FEDH         LINE#         150
  C:5FEDH         LINE#         151
  C:5FEFH         LINE#         152
  C:5FEFH         LINE#         153
  C:5FF3H         LINE#         154
  C:5FF3H         LINE#         155
  C:600BH         LINE#         156
  C:6012H         LINE#         157
  C:6014H         LINE#         158
  C:6014H         LINE#         160
  C:6020H         LINE#         161
  C:6026H         LINE#         164
  C:6032H         LINE#         165
  C:6036H         LINE#         167
  C:6036H         LINE#         169
  C:6080H         LINE#         177
  C:6087H         LINE#         178
  C:6094H         LINE#         179
  -------         ENDPROC       _DISP_TEXT
  -------         PROC          _DISP_1F
  X:01F2H         SYMBOL        num
  D:0005H         SYMBOL        ic
  C:827BH         LINE#         183
  C:8283H         LINE#         184
  C:8283H         LINE#         185
  -------         ENDPROC       _DISP_1F
  -------         PROC          _DISP_2F
  X:01F2H         SYMBOL        num
  D:0005H         SYMBOL        ic
  C:82BDH         LINE#         188
  C:82C5H         LINE#         189
  C:82C5H         LINE#         190
  -------         ENDPROC       _DISP_2F
  -------         PROC          _DISP_D
  D:0082H         SYMBOL        num
  D:0005H         SYMBOL        ic
  C:8527H         LINE#         193
  C:852BH         LINE#         194
  C:852BH         LINE#         195
  -------         ENDPROC       _DISP_D
  -------         PROC          _DISP_LD
  X:01F2H         SYMBOL        num
BL51 BANKED LINKER/LOCATER V6.22.2.0                                                  07/13/2018  15:19:21  PAGE 40


  X:01F6H         SYMBOL        ic
  C:83C1H         LINE#         198
  C:83C7H         LINE#         199
  C:83C7H         LINE#         200
  -------         ENDPROC       _DISP_LD
  -------         PROC          _DISP_CUSTOM
  X:01F7H         SYMBOL        ic
  X:01F8H         SYMBOL        format
  -------         DO            
  X:01FBH         SYMBOL        ellipsis_40
  X:0223H         SYMBOL        ap
  -------         ENDDO         
  C:7D0DH         LINE#         203
  C:7D1BH         LINE#         204
  C:7D1BH         LINE#         206
  C:7D29H         LINE#         207
  C:7D5CH         LINE#         208
  C:7D65H         LINE#         209
  -------         ENDPROC       _DISP_CUSTOM
  -------         PROC          _DISP_MATRIX
  D:0001H         SYMBOL        lib_text
  D:0005H         SYMBOL        ic
  C:836AH         LINE#         213
  C:836AH         LINE#         214
  C:836AH         LINE#         215
  -------         ENDPROC       _DISP_MATRIX
  -------         PROC          _DISP_ALTERNANT_NET
  X:01F2H         SYMBOL        on_ms
  X:01F4H         SYMBOL        off_ms
  -------         DO            
  D:0006H         SYMBOL        temp
  -------         ENDDO         
  C:7F46H         LINE#         218
  C:7F54H         LINE#         219
  C:7F54H         LINE#         220
  C:7F88H         LINE#         221
  C:7F95H         LINE#         222
  C:7F98H         LINE#         224
  C:7F9AH         LINE#         225
  -------         ENDPROC       _DISP_ALTERNANT_NET
  -------         PROC          _DISP_ALTERNANT2_NET
  X:01F2H         SYMBOL        on_ms1
  X:01F4H         SYMBOL        off_ms1
  X:01F6H         SYMBOL        on_ms2
  X:01F8H         SYMBOL        off_ms2
  -------         DO            
  D:0006H         SYMBOL        temp
  -------         ENDDO         
  C:72BEH         LINE#         227
  C:72D2H         LINE#         228
  C:72D2H         LINE#         229
  C:731FH         LINE#         230
  C:735AH         LINE#         231
  C:735DH         LINE#         233
  C:735FH         LINE#         234
  -------         ENDPROC       _DISP_ALTERNANT2_NET
  -------         ENDMOD        IMAGE
BL51 BANKED LINKER/LOCATER V6.22.2.0                                                  07/13/2018  15:19:21  PAGE 41



  -------         MODULE        KEY
  C:0000H         SYMBOL        _ICE_DUMMY_
  D:0080H         PUBLIC        P0
  D:0090H         PUBLIC        P1
  B:0022H.7       PUBLIC        key_id_done
  D:00A0H         PUBLIC        P2
  D:00B0H         PUBLIC        P3
  D:00C0H         PUBLIC        P4
  D:00C8H         PUBLIC        P5
  D:00A8H         PUBLIC        IE
  D:00F8H         PUBLIC        RSTFR
  B:00B0H.1       PUBLIC        P3_1
  D:0098H         PUBLIC        SCON
  D:0088H         PUBLIC        TCON
  D:00B8H         PUBLIC        IE1
  C:6A77H         PUBLIC        key_scan
  C:82FFH         PUBLIC        check_key_id
  X:03E9H         SYMBOL        key_input
  X:03EBH         SYMBOL        key_input_last
  X:03EDH         PUBLIC        key_id
  D:00D0H         PUBLIC        PSW
  -------         PROC          KEY_SCAN
  -------         DO            
  D:0007H         SYMBOL        i
  X:03E6H         SYMBOL        key_press_timer
  X:03E8H         SYMBOL        key_relse_timer
  B:0022H.6       SYMBOL        key_start_stop
  -------         ENDDO         
  C:6A77H         LINE#         26
  C:6A77H         LINE#         27
  C:6A77H         LINE#         34
  C:6A87H         LINE#         35
  C:6A94H         LINE#         36
  C:6A9BH         LINE#         38
  C:6AA2H         LINE#         39
  C:6AB1H         LINE#         40
  C:6AB4H         LINE#         41
  C:6AB4H         LINE#         42
  C:6ABDH         LINE#         43
  C:6ABDH         LINE#         44
  C:6AC4H         LINE#         46
  C:6ADEH         LINE#         47
  C:6ADEH         LINE#         48
  C:6AECH         LINE#         49
  C:6AF1H         LINE#         50
  C:6B01H         LINE#         51
  C:6B01H         LINE#         54
  C:6B10H         LINE#         55
  C:6B10H         LINE#         56
  C:6B18H         LINE#         57
  C:6B19H         LINE#         59
  C:6B19H         LINE#         60
  C:6B22H         LINE#         61
  C:6B22H         LINE#         62
  C:6B2BH         LINE#         63
  C:6B30H         LINE#         64
BL51 BANKED LINKER/LOCATER V6.22.2.0                                                  07/13/2018  15:19:21  PAGE 42


  C:6B30H         LINE#         65
  C:6B32H         LINE#         67
  C:6B32H         LINE#         68
  C:6B34H         LINE#         69
  C:6B34H         LINE#         70
  C:6B34H         LINE#         71
  C:6B34H         LINE#         72
  C:6B35H         LINE#         73
  C:6B3FH         LINE#         74
  C:6B3FH         LINE#         75
  C:6B42H         LINE#         76
  C:6B42H         LINE#         77
  C:6B4BH         LINE#         78
  C:6B4DH         LINE#         79
  C:6B4EH         LINE#         81
  C:6B4EH         LINE#         82
  C:6B55H         LINE#         83
  C:6B59H         LINE#         84
  C:6B63H         LINE#         85
  C:6B63H         LINE#         86
  C:6B66H         LINE#         87
  C:6B68H         LINE#         88
  C:6B6FH         LINE#         89
  C:6B6FH         LINE#         90
  C:6B6FH         LINE#         91
  C:6B6FH         LINE#         92
  -------         ENDPROC       KEY_SCAN
  -------         PROC          CHECK_KEY_ID
  C:82FFH         LINE#         95
  C:82FFH         LINE#         96
  C:82FFH         LINE#         118
  C:8313H         LINE#         119
  C:8313H         LINE#         120
  C:8321H         LINE#         121
  C:8323H         LINE#         122
  C:8324H         LINE#         124
  C:8324H         LINE#         125
  C:832DH         LINE#         126
  C:832DH         LINE#         127
  C:832FH         LINE#         128
  C:8339H         LINE#         129
  C:8339H         LINE#         130
  C:8339H         LINE#         132
  -------         ENDPROC       CHECK_KEY_ID
  -------         ENDMOD        KEY

  -------         MODULE        MIWIFI
  C:0000H         SYMBOL        _ICE_DUMMY_
  D:0080H         PUBLIC        P0
  D:0090H         PUBLIC        P1
  D:00A0H         PUBLIC        P2
  D:00B0H         PUBLIC        P3
  D:00C0H         PUBLIC        P4
  D:00C8H         PUBLIC        P5
  C:73FAH         PUBLIC        UART1_Rpt
  X:000DH         SYMBOL        command_mcu2wifi_size
  D:00A8H         PUBLIC        IE
BL51 BANKED LINKER/LOCATER V6.22.2.0                                                  07/13/2018  15:19:21  PAGE 43


  C:81FCH         SYMBOL        _append_long
  D:00FCH         PUBLIC        IAP_CMD
  C:6C75H         SYMBOL        _parse_speed
  D:00F8H         PUBLIC        RSTFR
  C:44FEH         SYMBOL        OK
  B:0098H.0       PUBLIC        S1RI
  X:000EH         SYMBOL        cnt_mcu2wifi_rec2
  B:0098H.1       PUBLIC        S1TI
  C:44F9H         PUBLIC        FW_VERSION
  C:8124H         SYMBOL        _append_int
  X:000FH         PUBLIC        server_time
  X:0013H         SYMBOL        cnt_mcu2wifi_tra2
  D:0099H         PUBLIC        SBUF
  C:64EEH         SYMBOL        _process_net_state
  X:0014H         PUBLIC        commu_wifi_flag
  D:0098H         PUBLIC        SCON
  X:0015H         SYMBOL        commu_mcu2wifi_state
  D:0088H         PUBLIC        TCON
  C:003EH         PUBLIC        commu_wifi
  C:7D89H         SYMBOL        _append_str
  X:0016H         PUBLIC        store_point
  D:00B8H         PUBLIC        IE1
  X:0035H         SYMBOL        wifi2mcu_cmd
  X:0036H         SYMBOL        mcu2wifi_cmd
  X:0037H         PUBLIC        net_state
  X:0038H         PUBLIC        button_id
  C:8163H         SYMBOL        clear_offline_data
  B:0023H.0       SYMBOL        recvorder
  B:0023H.1       PUBLIC        flag_mode_changed
  X:003AH         SYMBOL        commu_mcu2wifi_cnt
  X:003BH         SYMBOL        mcu2wifi_rxd
  X:009FH         SYMBOL        mcu2wifi_txd
  C:7640H         SYMBOL        get_store_time
  X:0103H         SYMBOL        transmit_delay
  X:0104H         SYMBOL        ack_str
  X:0168H         PUBLIC        store_mp
  C:7A90H         SYMBOL        _append_speed
  C:44E0H         SYMBOL        MODEL
  C:44E6H         SYMBOL        MODEL_NAME
  D:00D0H         PUBLIC        PSW
  -------         PROC          _PROCESS_NET_STATE
  X:01F9H         SYMBOL        str
  C:64EEH         LINE#         83
  C:64F9H         LINE#         84
  C:64F9H         LINE#         85
  C:6523H         LINE#         86
  C:6529H         LINE#         87
  C:6553H         LINE#         88
  C:655AH         LINE#         89
  C:6584H         LINE#         90
  C:658BH         LINE#         91
  C:65B5H         LINE#         92
  C:65BCH         LINE#         93
  C:65E6H         LINE#         94
  C:65EDH         LINE#         95
  C:6617H         LINE#         96
  C:661DH         LINE#         97
BL51 BANKED LINKER/LOCATER V6.22.2.0                                                  07/13/2018  15:19:21  PAGE 44


  -------         ENDPROC       _PROCESS_NET_STATE
  C:6C67H         SYMBOL        L?0415
  -------         PROC          L?0414
  -------         ENDPROC       L?0414
  C:6C67H         SYMBOL        L?0415
  -------         PROC          _PARSE_SPEED
  X:01F9H         SYMBOL        ptr
  -------         DO            
  X:01FCH         SYMBOL        temp
  -------         ENDDO         
  C:6C75H         LINE#         99
  C:6C80H         LINE#         100
  C:6C80H         LINE#         102
  C:6C86H         LINE#         103
  C:6C90H         LINE#         105
  C:6CA6H         LINE#         106
  C:6CB5H         LINE#         107
  C:6CD0H         LINE#         108
  C:6CEAH         LINE#         109
  C:6CEAH         LINE#         110
  C:6D0EH         LINE#         111
  C:6D20H         LINE#         112
  C:6D2EH         LINE#         113
  C:6D2EH         LINE#         115
  C:6D39H         LINE#         116
  C:6D3DH         LINE#         118
  C:6D47H         LINE#         119
  -------         ENDPROC       _PARSE_SPEED
  -------         PROC          CLEAR_OFFLINE_DATA
  C:8163H         LINE#         121
  C:8163H         LINE#         122
  C:8163H         LINE#         123
  C:816AH         LINE#         124
  C:8172H         LINE#         125
  C:8179H         LINE#         126
  C:817DH         LINE#         127
  C:8186H         LINE#         128
  C:8197H         LINE#         129
  C:81A1H         LINE#         130
  -------         ENDPROC       CLEAR_OFFLINE_DATA
  C:7D73H         SYMBOL        L?0411
  -------         PROC          L?0410
  -------         ENDPROC       L?0410
  C:7D73H         SYMBOL        L?0411
  -------         PROC          _APPEND_STR
  X:01F9H         SYMBOL        ptr
  X:01FCH         SYMBOL        str
  C:7D89H         LINE#         133
  C:7D94H         LINE#         134
  C:7D94H         LINE#         135
  C:7DD4H         LINE#         136
  -------         ENDPROC       _APPEND_STR
  C:8120H         SYMBOL        L?0413
  -------         PROC          L?0412
  -------         ENDPROC       L?0412
  C:8120H         SYMBOL        L?0413
  -------         PROC          _APPEND_INT
BL51 BANKED LINKER/LOCATER V6.22.2.0                                                  07/13/2018  15:19:21  PAGE 45


  X:01F9H         SYMBOL        str
  D:0004H         SYMBOL        n
  C:8124H         LINE#         138
  C:812FH         LINE#         139
  C:812FH         LINE#         140
  C:8162H         LINE#         141
  -------         ENDPROC       _APPEND_INT
  -------         PROC          L?0416
  -------         ENDPROC       L?0416
  -------         PROC          _APPEND_LONG
  X:01F9H         SYMBOL        str
  D:0004H         SYMBOL        n
  C:81FCH         LINE#         143
  C:8207H         LINE#         144
  C:8207H         LINE#         145
  C:8236H         LINE#         146
  -------         ENDPROC       _APPEND_LONG
  -------         PROC          L?0417
  -------         ENDPROC       L?0417
  -------         PROC          _APPEND_SPEED
  X:01F9H         SYMBOL        str
  X:01FCH         SYMBOL        sp
  C:7A90H         LINE#         148
  C:7A9EH         LINE#         149
  C:7A9EH         LINE#         150
  C:7AF9H         LINE#         151
  -------         ENDPROC       _APPEND_SPEED
  -------         PROC          GET_STORE_TIME
  -------         DO            
  X:0000H         SYMBOL        store_time
  X:01F9H         SYMBOL        temp
  -------         ENDDO         
  C:7640H         LINE#         153
  C:7640H         LINE#         154
  C:7640H         LINE#         156
  C:766BH         LINE#         157
  C:768DH         LINE#         158
  C:769DH         LINE#         160
  C:76BCH         LINE#         161
  C:76CAH         LINE#         162
  -------         ENDPROC       GET_STORE_TIME
  -------         PROC          COMMU_WIFI
  -------         DO            
  X:0004H         SYMBOL        props_time_second
  X:0005H         SYMBOL        props_mode
  X:0006H         SYMBOL        props_speed
  X:0007H         SYMBOL        props_dist
  X:0009H         SYMBOL        props_step
  X:000BH         SYMBOL        error_code
  X:01EEH         SYMBOL        temp
  X:01F0H         SYMBOL        ptr0
  X:01F3H         SYMBOL        ptr1
  X:01F6H         SYMBOL        ptr2
  -------         ENDDO         
  C:003EH         LINE#         165
  C:003EH         LINE#         166
  C:003EH         LINE#         184
BL51 BANKED LINKER/LOCATER V6.22.2.0                                                  07/13/2018  15:19:21  PAGE 46


  C:0049H         LINE#         185
  C:0049H         LINE#         186
  C:0051H         LINE#         187
  C:005AH         LINE#         188
  C:005EH         LINE#         189
  C:0067H         LINE#         190
  C:0070H         LINE#         191
  C:0070H         LINE#         192
  C:0077H         LINE#         193
  C:0077H         LINE#         194
  C:007AH         LINE#         195
  C:0080H         LINE#         196
  C:0083H         LINE#         197
  C:008AH         LINE#         198
  C:008AH         LINE#         199
  C:008DH         LINE#         200
  C:0093H         LINE#         201
  C:0096H         LINE#         202
  C:009EH         LINE#         203
  C:009EH         LINE#         205
  C:00A4H         LINE#         206
  C:00A7H         LINE#         207
  C:00ABH         LINE#         208
  C:00ABH         LINE#         209
  C:00B1H         LINE#         210
  C:00B7H         LINE#         211
  C:00BAH         LINE#         212
  C:00C3H         LINE#         213
  C:00C3H         LINE#         214
  C:00C9H         LINE#         215
  C:00CCH         LINE#         216
  C:00F6H         LINE#         217
  C:00F6H         LINE#         218
  C:00FCH         LINE#         219
  C:00FEH         LINE#         220
  C:012BH         LINE#         221
  C:012BH         LINE#         222
  C:0132H         LINE#         223
  C:0138H         LINE#         224
  C:013AH         LINE#         226
  C:013AH         LINE#         227
  C:0140H         LINE#         228
  C:014DH         LINE#         229
  C:014DH         LINE#         230
  C:014FH         LINE#         231
  C:0155H         LINE#         232
  C:0157H         LINE#         235
  C:0157H         LINE#         236
  C:0157H         LINE#         238
  C:0157H         LINE#         239
  C:015CH         LINE#         240
  C:015CH         LINE#         242
  C:0165H         LINE#         243
  C:0165H         LINE#         244
  C:0169H         LINE#         245
  C:01B7H         LINE#         246
  C:01B7H         LINE#         247
BL51 BANKED LINKER/LOCATER V6.22.2.0                                                  07/13/2018  15:19:21  PAGE 47


  C:01B7H         LINE#         248
  C:01C3H         LINE#         249
  C:01C6H         LINE#         250
  C:01C6H         LINE#         252
  C:01E8H         LINE#         253
  C:01F2H         LINE#         254
  C:01F5H         LINE#         255
  C:01F5H         LINE#         256
  C:0220H         LINE#         257
  C:022DH         LINE#         258
  C:022DH         LINE#         259
  C:0232H         LINE#         260
  C:0275H         LINE#         261
  C:0275H         LINE#         262
  C:0285H         LINE#         263
  C:0285H         LINE#         264
  C:028BH         LINE#         265
  C:028BH         LINE#         266
  C:02D4H         LINE#         267
  C:02D4H         LINE#         268
  C:02DCH         LINE#         269
  C:0301H         LINE#         270
  C:031FH         LINE#         271
  C:031FH         LINE#         272
  C:032FH         LINE#         273
  C:032FH         LINE#         274
  C:0339H         LINE#         275
  C:0339H         LINE#         276
  C:037DH         LINE#         277
  C:037DH         LINE#         278
  C:0386H         LINE#         279
  C:03CCH         LINE#         280
  C:03CCH         LINE#         281
  C:03E0H         LINE#         282
  C:03E0H         LINE#         283
  C:03F0H         LINE#         284
  C:043DH         LINE#         285
  C:043DH         LINE#         286
  C:0454H         LINE#         287
  C:0454H         LINE#         288
  C:0464H         LINE#         289
  C:048FH         LINE#         290
  C:048FH         LINE#         291
  C:0492H         LINE#         292
  C:0492H         LINE#         293
  C:04CCH         LINE#         294
  C:04CFH         LINE#         295
  C:04CFH         LINE#         296
  C:056AH         LINE#         297
  C:056DH         LINE#         298
  C:056DH         LINE#         299
  C:05E8H         LINE#         300
  C:05EBH         LINE#         301
  C:05EEH         LINE#         302
  C:05EEH         LINE#         303
  C:05FAH         LINE#         304
  C:05FDH         LINE#         305
BL51 BANKED LINKER/LOCATER V6.22.2.0                                                  07/13/2018  15:19:21  PAGE 48


  C:05FDH         LINE#         306
  C:0622H         LINE#         307
  C:0625H         LINE#         308
  C:0625H         LINE#         309
  C:063EH         LINE#         310
  C:0641H         LINE#         311
  C:0641H         LINE#         312
  C:064DH         LINE#         313
  C:0650H         LINE#         314
  C:0650H         LINE#         315
  C:065EH         LINE#         316
  C:066EH         LINE#         318
  C:067CH         LINE#         319
  C:06AEH         LINE#         320
  C:06B5H         LINE#         321
  C:06B7H         LINE#         322
  C:06B7H         LINE#         323
  C:06C3H         LINE#         324
  C:06C5H         LINE#         325
  C:06C5H         LINE#         326
  C:06D1H         LINE#         327
  C:06D3H         LINE#         328
  C:06D3H         LINE#         329
  C:06EDH         LINE#         330
  C:06EFH         LINE#         331
  C:06EFH         LINE#         332
  C:06FBH         LINE#         333
  C:06FDH         LINE#         334
  C:06FDH         LINE#         335
  C:0720H         LINE#         336
  C:0722H         LINE#         337
  C:0722H         LINE#         338
  C:0731H         LINE#         339
  C:0731H         LINE#         340
  C:0731H         LINE#         341
  C:0731H         LINE#         342
  C:0731H         LINE#         344
  C:0737H         LINE#         345
  C:0745H         LINE#         346
  C:0756H         LINE#         347
  C:075EH         LINE#         348
  C:0761H         LINE#         350
  C:0765H         LINE#         351
  C:0776H         LINE#         352
  C:0776H         LINE#         353
  C:0777H         LINE#         354
  C:0782H         LINE#         355
  C:0782H         LINE#         356
  C:0788H         LINE#         357
  C:0788H         LINE#         358
  C:078CH         LINE#         359
  C:078EH         LINE#         360
  C:07DCH         LINE#         361
  C:07DCH         LINE#         362
  C:07DCH         LINE#         363
  C:07E1H         LINE#         364
  C:0809H         LINE#         365
BL51 BANKED LINKER/LOCATER V6.22.2.0                                                  07/13/2018  15:19:21  PAGE 49


  C:0809H         LINE#         366
  C:081AH         LINE#         368
  C:083CH         LINE#         369
  C:083CH         LINE#         370
  C:083CH         LINE#         371
  C:083CH         LINE#         372
  C:0869H         LINE#         373
  C:0869H         LINE#         374
  C:08CFH         LINE#         375
  C:08CFH         LINE#         376
  C:08F6H         LINE#         377
  C:08F6H         LINE#         378
  C:08FFH         LINE#         379
  C:0913H         LINE#         380
  C:0916H         LINE#         381
  C:0940H         LINE#         382
  C:0940H         LINE#         383
  C:0949H         LINE#         384
  C:0972H         LINE#         385
  C:0975H         LINE#         386
  C:09A2H         LINE#         387
  C:09A2H         LINE#         388
  C:09CFH         LINE#         389
  C:09D4H         LINE#         391
  C:09DBH         LINE#         392
  C:09F4H         LINE#         393
  C:09F4H         LINE#         394
  C:09F7H         LINE#         395
  C:09F9H         LINE#         397
  C:09F9H         LINE#         398
  C:0A06H         LINE#         399
  C:0A06H         LINE#         400
  C:0A1DH         LINE#         401
  C:0A20H         LINE#         402
  C:0A4AH         LINE#         403
  C:0A4AH         LINE#         404
  C:0A53H         LINE#         405
  C:0A68H         LINE#         406
  C:0A6BH         LINE#         407
  C:0A95H         LINE#         408
  C:0A95H         LINE#         409
  C:0A9EH         LINE#         410
  C:0ABBH         LINE#         411
  C:0ABEH         LINE#         412
  C:0AE8H         LINE#         413
  C:0AE8H         LINE#         414
  C:0AF1H         LINE#         415
  C:0B0AH         LINE#         416
  C:0B0DH         LINE#         417
  C:0B3AH         LINE#         418
  C:0B3AH         LINE#         424
  C:0BDFH         LINE#         427
  C:0BE2H         LINE#         428
  C:0BE2H         LINE#         429
  C:0C0CH         LINE#         430
  C:0C0CH         LINE#         431
  C:0C15H         LINE#         432
BL51 BANKED LINKER/LOCATER V6.22.2.0                                                  07/13/2018  15:19:21  PAGE 50


  C:0C36H         LINE#         433
  C:0C3DH         LINE#         434
  C:0C40H         LINE#         435
  C:0C6AH         LINE#         436
  C:0C6AH         LINE#         437
  C:0C73H         LINE#         438
  C:0C89H         LINE#         439
  C:0C8CH         LINE#         440
  C:0CB6H         LINE#         441
  C:0CB6H         LINE#         442
  C:0CBFH         LINE#         443
  C:0CDBH         LINE#         444
  C:0CE9H         LINE#         445
  C:0CECH         LINE#         446
  C:0D16H         LINE#         447
  C:0D16H         LINE#         448
  C:0D1FH         LINE#         449
  C:0D30H         LINE#         450
  C:0D33H         LINE#         451
  C:0D5DH         LINE#         452
  C:0D5DH         LINE#         453
  C:0D66H         LINE#         454
  C:0D7AH         LINE#         455
  C:0D7DH         LINE#         456
  C:0DA7H         LINE#         457
  C:0DA7H         LINE#         458
  C:0DB0H         LINE#         459
  C:0DC4H         LINE#         460
  C:0DC7H         LINE#         461
  C:0DF4H         LINE#         462
  C:0DF4H         LINE#         465
  C:0EA1H         LINE#         474
  C:0EA4H         LINE#         475
  C:0EA4H         LINE#         516
  C:0ECEH         LINE#         517
  C:0ECEH         LINE#         518
  C:0ED7H         LINE#         519
  C:0EEEH         LINE#         520
  C:0EF1H         LINE#         521
  C:0F1BH         LINE#         522
  C:0F1BH         LINE#         523
  C:0F24H         LINE#         524
  C:0F38H         LINE#         525
  C:0F3BH         LINE#         526
  C:0F65H         LINE#         527
  C:0F65H         LINE#         528
  C:0F6EH         LINE#         529
  C:0F95H         LINE#         530
  C:0F98H         LINE#         531
  C:0FC2H         LINE#         532
  C:0FC2H         LINE#         533
  C:0FCBH         LINE#         534
  C:0FEEH         LINE#         535
  C:0FF1H         LINE#         536
  C:101BH         LINE#         537
  C:101BH         LINE#         538
  C:1024H         LINE#         539
BL51 BANKED LINKER/LOCATER V6.22.2.0                                                  07/13/2018  15:19:21  PAGE 51


  C:103DH         LINE#         540
  C:1040H         LINE#         541
  C:106AH         LINE#         542
  C:106AH         LINE#         543
  C:1073H         LINE#         544
  C:1087H         LINE#         545
  C:108AH         LINE#         546
  C:10B4H         LINE#         547
  C:10B4H         LINE#         548
  C:10BDH         LINE#         549
  C:10D7H         LINE#         550
  C:10DAH         LINE#         551
  C:1104H         LINE#         552
  C:1104H         LINE#         553
  C:110DH         LINE#         554
  C:1125H         LINE#         555
  C:1127H         LINE#         556
  C:1151H         LINE#         557
  C:1151H         LINE#         558
  C:115AH         LINE#         559
  C:117CH         LINE#         560
  C:117FH         LINE#         562
  C:117FH         LINE#         563
  C:11A4H         LINE#         564
  C:11A7H         LINE#         565
  C:11A7H         LINE#         566
  C:11A7H         LINE#         567
  C:11A7H         LINE#         568
  C:11D4H         LINE#         569
  C:11D4H         LINE#         570
  C:11DDH         LINE#         571
  C:120AH         LINE#         572
  C:120AH         LINE#         573
  C:1213H         LINE#         574
  C:122FH         LINE#         575
  C:1254H         LINE#         578
  C:1254H         LINE#         579
  C:1269H         LINE#         580
  C:1274H         LINE#         582
  C:127AH         LINE#         583
  C:127CH         LINE#         584
  C:1281H         LINE#         585
  C:1289H         LINE#         586
  C:128DH         LINE#         587
  C:128DH         LINE#         589
  C:1296H         LINE#         590
  C:1299H         LINE#         591
  C:12C3H         LINE#         592
  C:12C3H         LINE#         593
  C:12C9H         LINE#         595
  C:12D0H         LINE#         596
  C:12D8H         LINE#         597
  C:12E0H         LINE#         598
  C:12E8H         LINE#         599
  C:12F5H         LINE#         600
  C:12F5H         LINE#         601
  C:12F7H         LINE#         602
BL51 BANKED LINKER/LOCATER V6.22.2.0                                                  07/13/2018  15:19:21  PAGE 52


  C:12FDH         LINE#         603
  C:12FDH         LINE#         607
  C:1306H         LINE#         608
  C:1306H         LINE#         609
  C:1309H         LINE#         610
  C:1336H         LINE#         611
  C:1336H         LINE#         612
  C:133FH         LINE#         613
  C:134BH         LINE#         614
  C:134BH         LINE#         615
  C:134BH         LINE#         616
  C:1358H         LINE#         617
  C:1358H         LINE#         618
  C:135DH         LINE#         619
  C:135DH         LINE#         620
  C:1360H         LINE#         621
  C:138AH         LINE#         622
  C:138AH         LINE#         623
  C:1393H         LINE#         624
  C:1393H         LINE#         625
  C:1395H         LINE#         626
  C:1397H         LINE#         627
  C:1397H         LINE#         628
  C:1397H         LINE#         629
  C:139AH         LINE#         630
  C:13C7H         LINE#         631
  C:13C7H         LINE#         632
  C:13D2H         LINE#         633
  C:13D2H         LINE#         634
  C:13D5H         LINE#         635
  C:13D7H         LINE#         636
  C:13D8H         LINE#         637
  C:13D8H         LINE#         638
  C:13DBH         LINE#         642
  C:1408H         LINE#         643
  C:1408H         LINE#         644
  C:1411H         LINE#         645
  C:143BH         LINE#         646
  C:143BH         LINE#         647
  C:1446H         LINE#         648
  C:1446H         LINE#         649
  C:144CH         LINE#         650
  C:144EH         LINE#         651
  C:144EH         LINE#         652
  C:1451H         LINE#         653
  C:147BH         LINE#         654
  C:147BH         LINE#         655
  C:1484H         LINE#         656
  C:1484H         LINE#         657
  C:148AH         LINE#         658
  C:148CH         LINE#         659
  C:148CH         LINE#         660
  C:148FH         LINE#         662
  C:148FH         LINE#         663
  C:1492H         LINE#         664
  C:14BFH         LINE#         665
  C:14BFH         LINE#         666
BL51 BANKED LINKER/LOCATER V6.22.2.0                                                  07/13/2018  15:19:21  PAGE 53


  C:14C8H         LINE#         667
  C:14F2H         LINE#         668
  C:14F2H         LINE#         669
  C:14FDH         LINE#         670
  C:14FDH         LINE#         671
  C:1503H         LINE#         672
  C:1503H         LINE#         673
  C:1503H         LINE#         674
  C:1506H         LINE#         675
  C:1530H         LINE#         676
  C:1530H         LINE#         677
  C:153BH         LINE#         678
  C:153BH         LINE#         679
  C:153EH         LINE#         680
  C:1540H         LINE#         681
  C:1540H         LINE#         682
  C:1543H         LINE#         684
  C:1543H         LINE#         685
  C:1546H         LINE#         686
  C:1570H         LINE#         687
  C:1570H         LINE#         688
  C:1573H         LINE#         689
  C:157BH         LINE#         690
  C:1586H         LINE#         691
  C:158BH         LINE#         692
  C:1596H         LINE#         693
  C:159CH         LINE#         694
  C:15A5H         LINE#         695
  C:15B1H         LINE#         696
  C:15BEH         LINE#         697
  C:15BEH         LINE#         698
  C:15C0H         LINE#         699
  C:15CDH         LINE#         700
  C:15CDH         LINE#         701
  C:15D0H         LINE#         702
  C:15D0H         LINE#         703
  C:15D2H         LINE#         704
  C:15DBH         LINE#         705
  C:15DBH         LINE#         706
  C:15E1H         LINE#         707
  C:15E3H         LINE#         708
  C:15E6H         LINE#         709
  C:1610H         LINE#         710
  C:1610H         LINE#         711
  C:1619H         LINE#         712
  C:162FH         LINE#         713
  C:164BH         LINE#         714
  C:164BH         LINE#         715
  C:1650H         LINE#         716
  C:1650H         LINE#         717
  C:1656H         LINE#         718
  C:1662H         LINE#         719
  C:1664H         LINE#         720
  C:1667H         LINE#         721
  C:1691H         LINE#         722
  C:1691H         LINE#         723
  C:169AH         LINE#         724
BL51 BANKED LINKER/LOCATER V6.22.2.0                                                  07/13/2018  15:19:21  PAGE 54


  C:16B0H         LINE#         725
  C:16B5H         LINE#         726
  C:16B5H         LINE#         727
  C:16BEH         LINE#         728
  C:16C0H         LINE#         729
  C:16C3H         LINE#         730
  C:16DBH         LINE#         731
  C:16DBH         LINE#         732
  C:16E1H         LINE#         733
  C:16E6H         LINE#         734
  C:16E6H         LINE#         735
  C:16E6H         LINE#         736
  C:16E9H         LINE#         737
  C:1716H         LINE#         738
  C:1716H         LINE#         739
  C:171FH         LINE#         740
  C:1749H         LINE#         741
  C:1749H         LINE#         742
  C:175AH         LINE#         743
  C:1764H         LINE#         744
  C:1764H         LINE#         745
  C:176EH         LINE#         746
  C:1775H         LINE#         747
  C:177BH         LINE#         748
  C:177BH         LINE#         749
  C:1796H         LINE#         750
  C:17A2H         LINE#         751
  C:17A2H         LINE#         752
  C:17B4H         LINE#         753
  C:17BBH         LINE#         754
  C:17C1H         LINE#         755
  C:17C1H         LINE#         756
  C:17C1H         LINE#         757
  C:17F4H         LINE#         758
  C:17F6H         LINE#         759
  C:17F9H         LINE#         760
  C:1826H         LINE#         761
  C:1826H         LINE#         762
  C:1829H         LINE#         763
  C:1836H         LINE#         764
  C:185DH         LINE#         765
  C:185DH         LINE#         766
  C:1876H         LINE#         767
  C:1876H         LINE#         768
  C:187BH         LINE#         769
  C:1881H         LINE#         770
  C:1881H         LINE#         771
  C:188BH         LINE#         772
  C:1892H         LINE#         773
  C:1892H         LINE#         774
  C:18A0H         LINE#         775
  C:18A2H         LINE#         776
  C:18A5H         LINE#         793
  C:18CFH         LINE#         794
  C:18CFH         LINE#         795
  C:18D8H         LINE#         796
  C:18F4H         LINE#         797
BL51 BANKED LINKER/LOCATER V6.22.2.0                                                  07/13/2018  15:19:21  PAGE 55


  C:191AH         LINE#         798
  C:191AH         LINE#         799
  C:1924H         LINE#         800
  C:192DH         LINE#         801
  C:192DH         LINE#         802
  C:193CH         LINE#         803
  C:193EH         LINE#         804
  C:1941H         LINE#         805
  C:196BH         LINE#         806
  C:196BH         LINE#         807
  C:1974H         LINE#         808
  C:198AH         LINE#         809
  C:19B2H         LINE#         810
  C:19B2H         LINE#         811
  C:19BCH         LINE#         812
  C:19C3H         LINE#         813
  C:19C3H         LINE#         814
  C:19C9H         LINE#         815
  C:19CBH         LINE#         816
  C:19CEH         LINE#         817
  C:19F8H         LINE#         818
  C:19F8H         LINE#         819
  C:1A01H         LINE#         820
  C:1A1DH         LINE#         821
  C:1A22H         LINE#         822
  C:1A22H         LINE#         823
  C:1A2FH         LINE#         824
  C:1A2FH         LINE#         825
  C:1A3DH         LINE#         826
  C:1A40H         LINE#         827
  C:1A6AH         LINE#         828
  C:1A6AH         LINE#         829
  C:1A73H         LINE#         830
  C:1A79H         LINE#         831
  C:1A79H         LINE#         832
  C:1A95H         LINE#         833
  C:1AA5H         LINE#         834
  C:1AA7H         LINE#         835
  C:1AA7H         LINE#         836
  C:1AC1H         LINE#         837
  C:1AC3H         LINE#         838
  C:1AC6H         LINE#         839
  C:1AF0H         LINE#         840
  C:1AF0H         LINE#         841
  C:1AF9H         LINE#         842
  C:1B15H         LINE#         843
  C:1B18H         LINE#         844
  C:1B18H         LINE#         845
  C:1B1BH         LINE#         846
  C:1B1DH         LINE#         847
  C:1B2CH         LINE#         848
  C:1B2CH         LINE#         849
  C:1B33H         LINE#         850
  C:1B33H         LINE#         851
  C:1B44H         LINE#         852
  C:1B49H         LINE#         853
  C:1B4CH         LINE#         855
BL51 BANKED LINKER/LOCATER V6.22.2.0                                                  07/13/2018  15:19:21  PAGE 56


  C:1B4CH         LINE#         856
  C:1B4CH         LINE#         857
  C:1B4CH         LINE#         858
  C:1B4FH         LINE#         859
  C:1B79H         LINE#         860
  C:1B79H         LINE#         861
  C:1B82H         LINE#         862
  C:1BACH         LINE#         863
  C:1BACH         LINE#         864
  C:1BB3H         LINE#         865
  C:1BB3H         LINE#         866
  C:1BB5H         LINE#         867
  C:1BE2H         LINE#         868
  C:1BE2H         LINE#         869
  C:1BEAH         LINE#         870
  C:1BECH         LINE#         871
  C:1BECH         LINE#         872
  C:1BEFH         LINE#         873
  C:1C19H         LINE#         874
  C:1C19H         LINE#         875
  C:1C22H         LINE#         876
  C:1C38H         LINE#         877
  C:1C52H         LINE#         878
  C:1C57H         LINE#         879
  C:1C67H         LINE#         880
  C:1C6AH         LINE#         881
  C:1C94H         LINE#         882
  C:1C94H         LINE#         883
  C:1C97H         LINE#         884
  C:1C9AH         LINE#         885
  C:1C9AH         LINE#         886
  C:1CC4H         LINE#         887
  C:1CC4H         LINE#         888
  C:1CC7H         LINE#         889
  C:1CCAH         LINE#         890
  C:1CCAH         LINE#         891
  C:1CF4H         LINE#         892
  C:1CF4H         LINE#         893
  C:1CFDH         LINE#         894
  C:1D08H         LINE#         895
  C:1D0BH         LINE#         896
  C:1D0BH         LINE#         897
  C:1D35H         LINE#         898
  C:1D35H         LINE#         899
  C:1D45H         LINE#         900
  C:1D45H         LINE#         901
  C:1D4EH         LINE#         902
  C:1D53H         LINE#         903
  C:1D5EH         LINE#         904
  C:1D69H         LINE#         905
  C:1D6CH         LINE#         908
  C:1D72H         LINE#         909
  C:1D78H         LINE#         910
  C:1D7AH         LINE#         912
  C:1D7AH         LINE#         913
  C:1D84H         LINE#         914
  C:1D84H         LINE#         915
BL51 BANKED LINKER/LOCATER V6.22.2.0                                                  07/13/2018  15:19:21  PAGE 57


  C:1D99H         LINE#         916
  C:1D9CH         LINE#         917
  C:1DBFH         LINE#         918
  C:1DBFH         LINE#         919
  C:1DBFH         LINE#         920
  C:1DC2H         LINE#         921
  C:1DC2H         LINE#         922
  C:1DC9H         LINE#         923
  C:1DC9H         LINE#         924
  C:1DC9H         LINE#         925
  C:1DC9H         LINE#         926
  C:1DC9H         LINE#         927
  C:1DF1H         LINE#         928
  C:1DF1H         LINE#         929
  C:1DF4H         LINE#         930
  C:1DF4H         LINE#         931
  C:1DFBH         LINE#         932
  C:1DFEH         LINE#         933
  C:1DFEH         LINE#         934
  C:1E01H         LINE#         935
  C:1E01H         LINE#         936
  C:1E29H         LINE#         937
  C:1E2BH         LINE#         939
  C:1E2BH         LINE#         940
  C:1E2DH         LINE#         941
  C:1E2DH         LINE#         942
  C:1E55H         LINE#         943
  C:1E57H         LINE#         945
  C:1E5AH         LINE#         946
  C:1E5DH         LINE#         947
  C:1E5DH         LINE#         948
  C:1E85H         LINE#         949
  C:1E87H         LINE#         951
  C:1E8AH         LINE#         952
  C:1E8DH         LINE#         953
  C:1E8DH         LINE#         954
  C:1EB2H         LINE#         955
  C:1EB2H         LINE#         956
  C:1EB9H         LINE#         957
  C:1EBEH         LINE#         958
  C:1EC4H         LINE#         959
  C:1EC7H         LINE#         961
  C:1ECDH         LINE#         962
  C:1ED0H         LINE#         963
  C:1ED0H         LINE#         964
  C:1ED9H         LINE#         965
  C:1EDCH         LINE#         966
  C:1EDCH         LINE#         968
  C:1EDCH         LINE#         969
  C:1EE3H         LINE#         970
  C:1EE9H         LINE#         971
  C:1EE9H         LINE#         972
  C:1EECH         LINE#         973
  C:1EECH         LINE#         974
  C:1F11H         LINE#         975
  C:1F11H         LINE#         976
  C:1F33H         LINE#         977
BL51 BANKED LINKER/LOCATER V6.22.2.0                                                  07/13/2018  15:19:21  PAGE 58


  C:1F41H         LINE#         978
  C:1F41H         LINE#         979
  C:1F41H         LINE#         980
  C:1F44H         LINE#         981
  C:1F44H         LINE#         982
  C:1F44H         LINE#         983
  C:1F4AH         LINE#         984
  C:1F4DH         LINE#         985
  C:1F4DH         LINE#         986
  C:1F75H         LINE#         987
  C:1F7AH         LINE#         989
  C:1F7DH         LINE#         990
  C:1F7DH         LINE#         991
  C:1F8CH         LINE#         992
  C:1FABH         LINE#         993
  C:1FABH         LINE#         994
  C:1FF1H         LINE#         995
  C:1FF7H         LINE#         996
  C:1FF7H         LINE#         997
  C:1FFFH         LINE#         998
  C:2008H         LINE#         999
  C:2008H         LINE#         1000
  C:204EH         LINE#         1001
  C:2054H         LINE#         1002
  C:2056H         LINE#         1003
  C:2056H         LINE#         1004
  C:2056H         LINE#         1005
  C:2056H         LINE#         1007
  C:2056H         LINE#         1008
  C:2060H         LINE#         1009
  C:2060H         LINE#         1010
  C:2066H         LINE#         1011
  C:2066H         LINE#         1012
  C:2066H         LINE#         1013
  C:2066H         LINE#         1015
  C:206BH         LINE#         1016
  C:2070H         LINE#         1017
  C:2071H         LINE#         1018
  C:2073H         LINE#         1020
  C:2073H         LINE#         1021
  C:2080H         LINE#         1022
  C:2080H         LINE#         1023
  C:2086H         LINE#         1024
  C:208CH         LINE#         1025
  C:2091H         LINE#         1026
  C:2095H         LINE#         1027
  C:2096H         LINE#         1029
  C:2096H         LINE#         1030
  C:209CH         LINE#         1031
  C:209CH         LINE#         1032
  C:209CH         LINE#         1033
  C:209DH         LINE#         1035
  C:209DH         LINE#         1036
  C:20A0H         LINE#         1037
  C:20A0H         LINE#         1038
  C:20A5H         LINE#         1039
  C:20AAH         LINE#         1040
BL51 BANKED LINKER/LOCATER V6.22.2.0                                                  07/13/2018  15:19:21  PAGE 59


  C:20AEH         LINE#         1041
  C:20AEH         LINE#         1042
  C:20AEH         LINE#         1043
  -------         ENDPROC       COMMU_WIFI
  -------         PROC          UART1_RPT
  C:73FAH         LINE#         1077
  C:7407H         LINE#         1079
  C:740AH         LINE#         1080
  C:740AH         LINE#         1081
  C:741BH         LINE#         1082
  C:742AH         LINE#         1083
  C:742AH         LINE#         1084
  C:7439H         LINE#         1085
  C:743BH         LINE#         1086
  C:743FH         LINE#         1087
  C:7441H         LINE#         1088
  C:7444H         LINE#         1089
  C:7444H         LINE#         1090
  C:744AH         LINE#         1091
  C:7454H         LINE#         1092
  C:7454H         LINE#         1093
  C:7456H         LINE#         1094
  C:7456H         LINE#         1095
  C:7456H         LINE#         1096
  C:7458H         LINE#         1097
  C:7458H         LINE#         1098
  C:745BH         LINE#         1099
  C:745BH         LINE#         1100
  C:7468H         LINE#         1101
  C:7468H         LINE#         1102
  C:7479H         LINE#         1103
  C:747BH         LINE#         1105
  C:747BH         LINE#         1106
  C:7480H         LINE#         1107
  C:7480H         LINE#         1108
  C:7482H         LINE#         1109
  C:7482H         LINE#         1110
  -------         ENDPROC       UART1_RPT
  -------         ENDMOD        MIWIFI

  -------         MODULE        MOTION
  C:0000H         SYMBOL        _ICE_DUMMY_
  D:0080H         PUBLIC        P0
  C:7135H         SYMBOL        lib_rc_start
  D:0090H         PUBLIC        P1
  D:00A0H         PUBLIC        P2
  D:00B0H         PUBLIC        P3
  D:00C0H         PUBLIC        P4
  D:00C8H         PUBLIC        P5
  D:00A8H         PUBLIC        IE
  B:0080H.0       PUBLIC        P0_0
  B:0090H.0       PUBLIC        P1_0
  B:0090H.1       PUBLIC        P1_1
  C:5539H         PUBLIC        UserConsumerKeys
  D:00F8H         PUBLIC        RSTFR
  B:00C0H.2       PUBLIC        P4_2
  B:00C8H.5       PUBLIC        P5_5
BL51 BANKED LINKER/LOCATER V6.22.2.0                                                  07/13/2018  15:19:21  PAGE 60


  X:03DBH         PUBLIC        display_seg
  C:0026H         SYMBOL        _GOTO_STATE
  X:03DCH         PUBLIC        display_cnt
  X:03DEH         SYMBOL        user_machine_state_cnt
  B:0022H.1       PUBLIC        show_factory_mode
  X:03DFH         SYMBOL        show_for_a_while
  C:2BA4H         PUBLIC        UserConsumerOperation
  D:0098H         PUBLIC        SCON
  D:0088H         PUBLIC        TCON
  C:7107H         SYMBOL        lib_reset
  D:00B8H         PUBLIC        IE1
  C:77D0H         SYMBOL        set_runmode_led
  C:711EH         SYMBOL        lib_press
  C:70F0H         SYMBOL        lib_start
  C:3257H         PUBLIC        UserConsumerDisplay
  B:0022H.2       PUBLIC        flag_may_stuck
  X:03E0H         SYMBOL        user_machine_state_cnt1
  X:03E1H         SYMBOL        ui_state
  X:03E2H         PUBLIC        user_total_distance
  D:00D0H         PUBLIC        PSW
  B:0022H.3       PUBLIC        start_no_tick
  -------         PROC          _GOTO_STATE
  D:0007H         SYMBOL        state
  C:0026H         LINE#         79
  C:0026H         LINE#         80
  C:0026H         LINE#         81
  C:002BH         LINE#         82
  C:0032H         LINE#         83
  C:0036H         LINE#         84
  C:003AH         LINE#         85
  -------         ENDPROC       _GOTO_STATE
  -------         PROC          SET_RUNMODE_LED
  C:77D0H         LINE#         87
  C:77D0H         LINE#         88
  C:77D0H         LINE#         89
  C:77E1H         LINE#         90
  C:77E1H         LINE#         91
  C:77E1H         LINE#         92
  C:77F2H         LINE#         94
  C:77F2H         LINE#         95
  C:7803H         LINE#         96
  C:7805H         LINE#         97
  C:7805H         LINE#         98
  C:780BH         LINE#         99
  C:780CH         LINE#         100
  C:780CH         LINE#         101
  C:781FH         LINE#         102
  C:781FH         LINE#         103
  C:782FH         LINE#         104
  C:7831H         LINE#         106
  C:7831H         LINE#         107
  C:7849H         LINE#         108
  C:7849H         LINE#         109
  C:7849H         LINE#         110
  C:7849H         LINE#         111
  -------         ENDPROC       SET_RUNMODE_LED
  -------         PROC          USERCONSUMERDISPLAY
BL51 BANKED LINKER/LOCATER V6.22.2.0                                                  07/13/2018  15:19:21  PAGE 61


  -------         DO            
  X:01EEH         SYMBOL        digit_left
  X:01EFH         SYMBOL        digit_right
  X:01F0H         SYMBOL        digit_int
  -------         ENDDO         
  C:3257H         LINE#         113
  C:3257H         LINE#         114
  C:3257H         LINE#         119
  C:325CH         LINE#         121
  C:3262H         LINE#         122
  C:3262H         LINE#         123
  C:327CH         LINE#         124
  C:327CH         LINE#         125
  C:327CH         LINE#         126
  C:327CH         LINE#         127
  C:327CH         LINE#         128
  C:327CH         LINE#         129
  C:327CH         LINE#         132
  C:327FH         LINE#         133
  C:328FH         LINE#         134
  C:328FH         LINE#         135
  C:3299H         LINE#         136
  C:32A2H         LINE#         138
  C:32A2H         LINE#         140
  C:32C7H         LINE#         141
  C:32C7H         LINE#         142
  C:32C7H         LINE#         143
  C:32C9H         LINE#         144
  C:32CBH         LINE#         145
  C:32CBH         LINE#         146
  C:32CDH         LINE#         147
  C:32CFH         LINE#         148
  C:32CFH         LINE#         149
  C:32CFH         LINE#         150
  C:32D5H         LINE#         151
  C:32D7H         LINE#         152
  C:32D7H         LINE#         153
  C:32D7H         LINE#         154
  C:32E2H         LINE#         155
  C:32E4H         LINE#         156
  C:32E4H         LINE#         157
  C:32FDH         LINE#         158
  C:32FDH         LINE#         159
  C:32FDH         LINE#         161
  C:3305H         LINE#         162
  C:3305H         LINE#         163
  C:330BH         LINE#         164
  C:3311H         LINE#         165
  C:3314H         LINE#         166
  C:3314H         LINE#         167
  C:331CH         LINE#         168
  C:331CH         LINE#         169
  C:3322H         LINE#         170
  C:332CH         LINE#         171
  C:333CH         LINE#         172
  C:333FH         LINE#         173
  C:333FH         LINE#         174
BL51 BANKED LINKER/LOCATER V6.22.2.0                                                  07/13/2018  15:19:21  PAGE 62


  C:334FH         LINE#         175
  C:334FH         LINE#         176
  C:3356H         LINE#         177
  C:3359H         LINE#         178
  C:3359H         LINE#         179
  C:3360H         LINE#         180
  C:3360H         LINE#         181
  C:336BH         LINE#         182
  C:336BH         LINE#         183
  C:336BH         LINE#         185
  C:3371H         LINE#         186
  C:3371H         LINE#         187
  C:3379H         LINE#         188
  C:3379H         LINE#         189
  C:3383H         LINE#         190
  C:3390H         LINE#         191
  C:339BH         LINE#         192
  C:33A1H         LINE#         193
  C:33A6H         LINE#         194
  C:33A7H         LINE#         195
  C:33A7H         LINE#         196
  C:33AFH         LINE#         197
  C:33AFH         LINE#         199
  C:33B9H         LINE#         200
  C:33C0H         LINE#         201
  C:33C3H         LINE#         202
  C:33C3H         LINE#         204
  C:33C9H         LINE#         205
  C:33C9H         LINE#         206
  C:33D3H         LINE#         207
  C:33D3H         LINE#         208
  C:33D9H         LINE#         209
  C:33DEH         LINE#         210
  C:33DEH         LINE#         211
  C:33E0H         LINE#         212
  C:33EDH         LINE#         213
  C:33EDH         LINE#         214
  C:33F5H         LINE#         215
  C:33FBH         LINE#         216
  C:33FBH         LINE#         218
  C:3410H         LINE#         219
  C:3410H         LINE#         220
  C:3413H         LINE#         221
  C:341CH         LINE#         223
  C:341CH         LINE#         224
  C:342FH         LINE#         225
  C:344BH         LINE#         226
  C:344BH         LINE#         228
  C:3459H         LINE#         229
  C:3459H         LINE#         231
  C:3462H         LINE#         232
  C:3462H         LINE#         233
  C:346CH         LINE#         235
  C:347CH         LINE#         236
  C:347CH         LINE#         237
  C:3481H         LINE#         238
  C:3489H         LINE#         239
BL51 BANKED LINKER/LOCATER V6.22.2.0                                                  07/13/2018  15:19:21  PAGE 63


  C:348BH         LINE#         241
  C:348BH         LINE#         242
  C:34A2H         LINE#         243
  C:34B0H         LINE#         244
  C:34B0H         LINE#         246
  C:34BDH         LINE#         247
  C:34BDH         LINE#         248
  C:34C0H         LINE#         249
  C:34C0H         LINE#         250
  C:34DCH         LINE#         251
  C:34DCH         LINE#         252
  C:34E2H         LINE#         253
  C:34E4H         LINE#         255
  C:34E4H         LINE#         256
  C:3504H         LINE#         257
  C:3504H         LINE#         258
  C:3507H         LINE#         259
  C:3515H         LINE#         260
  C:3515H         LINE#         261
  C:3520H         LINE#         263
  C:3530H         LINE#         264
  C:3530H         LINE#         265
  C:3533H         LINE#         266
  C:3535H         LINE#         268
  C:3535H         LINE#         269
  C:3542H         LINE#         270
  C:3542H         LINE#         271
  C:3551H         LINE#         272
  C:3554H         LINE#         273
  C:355CH         LINE#         274
  C:355CH         LINE#         275
  C:3566H         LINE#         276
  C:3573H         LINE#         277
  C:3573H         LINE#         278
  C:357BH         LINE#         279
  C:357BH         LINE#         280
  C:3585H         LINE#         282
  C:35A1H         LINE#         283
  C:35A1H         LINE#         284
  C:35B8H         LINE#         285
  C:35BBH         LINE#         286
  C:35DAH         LINE#         287
  C:35DAH         LINE#         288
  C:35F1H         LINE#         289
  C:35F1H         LINE#         290
  C:35F4H         LINE#         291
  C:35FCH         LINE#         292
  C:35FCH         LINE#         293
  C:3606H         LINE#         294
  C:362BH         LINE#         295
  C:362EH         LINE#         296
  C:3636H         LINE#         297
  C:3636H         LINE#         298
  C:3642H         LINE#         299
  C:3649H         LINE#         300
  C:364CH         LINE#         301
  C:3654H         LINE#         302
BL51 BANKED LINKER/LOCATER V6.22.2.0                                                  07/13/2018  15:19:21  PAGE 64


  C:3654H         LINE#         303
  C:3672H         LINE#         304
  C:3692H         LINE#         305
  C:3692H         LINE#         306
  C:369AH         LINE#         307
  C:369AH         LINE#         308
  C:36A4H         LINE#         309
  C:36ABH         LINE#         310
  C:36ADH         LINE#         311
  C:36B5H         LINE#         312
  C:36B5H         LINE#         313
  C:36BFH         LINE#         314
  C:36C6H         LINE#         315
  C:36C8H         LINE#         316
  C:36D0H         LINE#         317
  C:36D0H         LINE#         318
  C:36DAH         LINE#         319
  C:36E6H         LINE#         320
  C:36E6H         LINE#         321
  C:36F4H         LINE#         322
  C:36F4H         LINE#         323
  C:36FFH         LINE#         324
  C:370FH         LINE#         325
  C:370FH         LINE#         326
  C:3717H         LINE#         327
  C:3717H         LINE#         328
  C:3721H         LINE#         329
  C:3724H         LINE#         330
  C:3724H         LINE#         331
  C:372AH         LINE#         332
  C:372CH         LINE#         333
  C:3732H         LINE#         334
  C:3732H         LINE#         335
  C:3738H         LINE#         336
  C:3738H         LINE#         338
  C:373AH         LINE#         339
  C:3742H         LINE#         340
  C:3742H         LINE#         341
  C:374EH         LINE#         342
  C:3756H         LINE#         343
  C:3758H         LINE#         344
  C:3763H         LINE#         345
  C:3763H         LINE#         346
  C:376DH         LINE#         347
  C:3778H         LINE#         348
  C:3778H         LINE#         349
  C:3778H         LINE#         350
  C:3778H         LINE#         351
  C:3780H         LINE#         352
  C:3780H         LINE#         353
  C:3786H         LINE#         354
  C:3786H         LINE#         355
  C:3795H         LINE#         356
  C:3795H         LINE#         357
  C:3797H         LINE#         358
  C:3799H         LINE#         359
  C:3799H         LINE#         360
BL51 BANKED LINKER/LOCATER V6.22.2.0                                                  07/13/2018  15:19:21  PAGE 65


  C:379AH         LINE#         361
  C:379AH         LINE#         362
  C:37B2H         LINE#         363
  C:37B8H         LINE#         364
  C:37BAH         LINE#         365
  C:37C5H         LINE#         366
  C:37C8H         LINE#         367
  C:37D9H         LINE#         368
  C:37D9H         LINE#         369
  C:384AH         LINE#         370
  C:3880H         LINE#         371
  C:3880H         LINE#         372
  C:3880H         LINE#         373
  C:3880H         LINE#         374
  C:3880H         LINE#         376
  C:3880H         LINE#         378
  C:3888H         LINE#         379
  C:3888H         LINE#         380
  C:388DH         LINE#         381
  C:388DH         LINE#         383
  C:3898H         LINE#         385
  C:38A5H         LINE#         386
  C:38A5H         LINE#         387
  C:38A8H         LINE#         388
  C:38AAH         LINE#         390
  C:38AAH         LINE#         391
  C:38ACH         LINE#         392
  C:38ACH         LINE#         394
  C:38CEH         LINE#         395
  C:38D6H         LINE#         396
  C:38EEH         LINE#         398
  C:38EEH         LINE#         399
  -------         ENDPROC       USERCONSUMERDISPLAY
  -------         PROC          USERCONSUMERKEYS
  C:5539H         LINE#         401
  C:5539H         LINE#         402
  C:5539H         LINE#         406
  C:553CH         LINE#         408
  C:5556H         LINE#         409
  C:5556H         LINE#         410
  C:5558H         LINE#         411
  C:5560H         LINE#         412
  C:5569H         LINE#         413
  C:5569H         LINE#         414
  C:55A7H         LINE#         415
  C:55A7H         LINE#         416
  C:55A7H         LINE#         417
  C:55A7H         LINE#         418
  C:55ACH         LINE#         420
  C:55B7H         LINE#         421
  C:55B7H         LINE#         422
  C:55B9H         LINE#         423
  C:55C0H         LINE#         424
  C:55C0H         LINE#         426
  C:55C3H         LINE#         427
  C:55C7H         LINE#         428
  C:55C7H         LINE#         429
BL51 BANKED LINKER/LOCATER V6.22.2.0                                                  07/13/2018  15:19:21  PAGE 66


  C:55CBH         LINE#         430
  C:55CBH         LINE#         431
  C:55CEH         LINE#         432
  C:55D9H         LINE#         433
  C:55D9H         LINE#         434
  C:55D9H         LINE#         435
  C:55D9H         LINE#         436
  C:55D9H         LINE#         438
  C:55DCH         LINE#         439
  C:55DCH         LINE#         440
  C:55E7H         LINE#         441
  C:55E7H         LINE#         442
  C:55ECH         LINE#         443
  C:55F2H         LINE#         444
  C:560DH         LINE#         445
  C:560DH         LINE#         446
  C:5614H         LINE#         447
  C:5621H         LINE#         448
  C:5621H         LINE#         449
  C:5623H         LINE#         450
  C:5629H         LINE#         451
  C:5629H         LINE#         452
  C:5636H         LINE#         453
  C:5636H         LINE#         454
  C:563AH         LINE#         455
  C:563AH         LINE#         456
  C:563AH         LINE#         458
  C:563AH         LINE#         459
  C:563CH         LINE#         460
  C:563CH         LINE#         461
  C:5647H         LINE#         462
  C:5647H         LINE#         463
  C:564CH         LINE#         464
  C:5652H         LINE#         465
  C:566DH         LINE#         466
  C:566DH         LINE#         467
  C:567AH         LINE#         468
  C:567AH         LINE#         469
  C:5680H         LINE#         470
  C:5682H         LINE#         472
  C:5682H         LINE#         473
  C:5689H         LINE#         474
  C:5689H         LINE#         476
  C:5696H         LINE#         477
  C:5696H         LINE#         478
  C:569EH         LINE#         479
  C:569EH         LINE#         480
  C:569EH         LINE#         482
  C:56A5H         LINE#         483
  C:56A6H         LINE#         484
  C:56A6H         LINE#         485
  C:56B1H         LINE#         486
  C:56B1H         LINE#         487
  C:56B6H         LINE#         488
  C:56BFH         LINE#         489
  C:56BFH         LINE#         490
  C:56C2H         LINE#         491
BL51 BANKED LINKER/LOCATER V6.22.2.0                                                  07/13/2018  15:19:21  PAGE 67


  C:56C3H         LINE#         493
  C:56C3H         LINE#         494
  C:56C6H         LINE#         495
  C:56C6H         LINE#         496
  C:56C7H         LINE#         497
  C:56C7H         LINE#         498
  C:56D2H         LINE#         499
  C:56D2H         LINE#         500
  C:56D7H         LINE#         501
  C:56D9H         LINE#         502
  C:56D9H         LINE#         503
  C:56DAH         LINE#         504
  C:56DAH         LINE#         505
  C:56E2H         LINE#         506
  C:56E2H         LINE#         507
  C:56E7H         LINE#         508
  C:56EEH         LINE#         509
  C:56F0H         LINE#         510
  C:56F9H         LINE#         511
  C:56FDH         LINE#         512
  C:56FDH         LINE#         513
  C:56FFH         LINE#         514
  C:56FFH         LINE#         515
  C:5701H         LINE#         516
  C:5706H         LINE#         517
  C:5706H         LINE#         518
  C:5706H         LINE#         519
  C:5706H         LINE#         520
  C:570CH         LINE#         521
  C:570CH         LINE#         522
  C:5711H         LINE#         523
  C:5716H         LINE#         524
  C:571CH         LINE#         525
  C:571EH         LINE#         526
  C:571EH         LINE#         527
  C:571FH         LINE#         528
  C:571FH         LINE#         529
  C:5725H         LINE#         530
  C:5726H         LINE#         531
  C:5726H         LINE#         532
  C:572CH         LINE#         533
  C:572DH         LINE#         534
  C:572DH         LINE#         535
  C:572DH         LINE#         537
  C:572DH         LINE#         538
  C:573AH         LINE#         539
  C:573AH         LINE#         540
  C:573FH         LINE#         541
  C:5741H         LINE#         542
  C:5747H         LINE#         543
  C:5747H         LINE#         544
  C:5748H         LINE#         545
  C:5748H         LINE#         546
  C:5750H         LINE#         547
  C:5750H         LINE#         548
  C:5755H         LINE#         549
  C:575BH         LINE#         550
BL51 BANKED LINKER/LOCATER V6.22.2.0                                                  07/13/2018  15:19:21  PAGE 68


  C:5760H         LINE#         551
  C:5766H         LINE#         552
  C:5766H         LINE#         553
  C:5766H         LINE#         554
  C:5766H         LINE#         555
  C:5766H         LINE#         556
  -------         ENDPROC       USERCONSUMERKEYS
  -------         PROC          USERCONSUMEROPERATION
  -------         DO            
  D:0006H         SYMBOL        temp16
  X:01EEH         SYMBOL        bias_abs
  -------         ENDDO         
  C:2BA4H         LINE#         567
  C:2BA4H         LINE#         568
  C:2BA4H         LINE#         572
  C:2BD9H         LINE#         574
  C:2BDCH         LINE#         575
  C:2BDCH         LINE#         576
  C:2BEAH         LINE#         577
  C:2BEAH         LINE#         578
  C:2BF3H         LINE#         579
  C:2BFBH         LINE#         580
  C:2BFBH         LINE#         581
  C:2C09H         LINE#         582
  C:2C09H         LINE#         583
  C:2C0EH         LINE#         584
  C:2C0EH         LINE#         585
  C:2C0EH         LINE#         586
  C:2C0EH         LINE#         587
  C:2C13H         LINE#         588
  C:2C15H         LINE#         589
  C:2C15H         LINE#         590
  C:2C1AH         LINE#         592
  C:2C48H         LINE#         593
  C:2C48H         LINE#         594
  C:2C55H         LINE#         595
  C:2C5DH         LINE#         597
  C:2C5DH         LINE#         598
  C:2C62H         LINE#         599
  C:2C67H         LINE#         600
  C:2C67H         LINE#         601
  C:2C67H         LINE#         603
  C:2C8FH         LINE#         604
  C:2C8FH         LINE#         605
  C:2C8FH         LINE#         606
  C:2C97H         LINE#         607
  C:2C97H         LINE#         608
  C:2C9CH         LINE#         609
  C:2C9EH         LINE#         610
  C:2CA0H         LINE#         611
  C:2CAFH         LINE#         612
  C:2CB6H         LINE#         613
  C:2CB6H         LINE#         614
  C:2CB9H         LINE#         616
  C:2CD1H         LINE#         617
  C:2CD1H         LINE#         618
  C:2CD4H         LINE#         619
BL51 BANKED LINKER/LOCATER V6.22.2.0                                                  07/13/2018  15:19:21  PAGE 69


  C:2CD6H         LINE#         621
  C:2CD8H         LINE#         622
  C:2CD8H         LINE#         623
  C:2CDBH         LINE#         624
  C:2CDBH         LINE#         625
  C:2CE3H         LINE#         626
  C:2CE5H         LINE#         634
  C:2CFFH         LINE#         635
  C:2CFFH         LINE#         636
  C:2D05H         LINE#         637
  C:2D07H         LINE#         638
  C:2D07H         LINE#         639
  C:2D0AH         LINE#         640
  C:2D10H         LINE#         641
  C:2D10H         LINE#         642
  C:2D14H         LINE#         643
  C:2D17H         LINE#         644
  C:2D17H         LINE#         645
  C:2D1FH         LINE#         646
  C:2D1FH         LINE#         647
  C:2D20H         LINE#         648
  C:2D41H         LINE#         649
  C:2D41H         LINE#         650
  C:2D49H         LINE#         651
  C:2D4FH         LINE#         652
  C:2D4FH         LINE#         653
  C:2D4FH         LINE#         665
  C:2D52H         LINE#         666
  C:2D8AH         LINE#         667
  C:2D8AH         LINE#         668
  C:2D90H         LINE#         669
  C:2D90H         LINE#         670
  C:2D9DH         LINE#         671
  C:2DA6H         LINE#         673
  C:2DACH         LINE#         674
  C:2DACH         LINE#         675
  C:2DAFH         LINE#         676
  C:2DFBH         LINE#         678
  C:2DFBH         LINE#         679
  C:2E0FH         LINE#         680
  C:2E0FH         LINE#         681
  C:2E18H         LINE#         682
  C:2E20H         LINE#         683
  C:2E26H         LINE#         684
  C:2E26H         LINE#         685
  C:2E2EH         LINE#         686
  C:2E2EH         LINE#         687
  C:2E33H         LINE#         689
  C:2E35H         LINE#         703
  C:2E37H         LINE#         705
  C:2E3AH         LINE#         706
  C:2E50H         LINE#         707
  C:2E50H         LINE#         708
  C:2E53H         LINE#         709
  C:2E56H         LINE#         710
  C:2E70H         LINE#         711
  C:2E70H         LINE#         712
BL51 BANKED LINKER/LOCATER V6.22.2.0                                                  07/13/2018  15:19:21  PAGE 70


  C:2E97H         LINE#         713
  C:2E97H         LINE#         714
  C:2EB1H         LINE#         715
  C:2EB9H         LINE#         716
  C:2F10H         LINE#         717
  C:2F24H         LINE#         718
  C:2F46H         LINE#         719
  C:2F4EH         LINE#         720
  C:2F66H         LINE#         721
  C:2F81H         LINE#         722
  C:2F89H         LINE#         723
  C:2F98H         LINE#         724
  C:2FB3H         LINE#         725
  C:2FC2H         LINE#         726
  C:2FD1H         LINE#         727
  C:2FD1H         LINE#         728
  C:2FD4H         LINE#         734
  C:2FD4H         LINE#         735
  C:2FE4H         LINE#         736
  C:2FE4H         LINE#         737
  C:2FEAH         LINE#         738
  C:2FEFH         LINE#         739
  C:2FF1H         LINE#         741
  C:2FF4H         LINE#         742
  C:2FFCH         LINE#         743
  C:2FFCH         LINE#         744
  C:2FFEH         LINE#         745
  C:3001H         LINE#         746
  C:3016H         LINE#         747
  C:3016H         LINE#         748
  C:301BH         LINE#         749
  C:301BH         LINE#         750
  C:301EH         LINE#         751
  C:301EH         LINE#         752
  C:3024H         LINE#         753
  C:3027H         LINE#         754
  C:302FH         LINE#         755
  C:302FH         LINE#         756
  C:3032H         LINE#         757
  C:3041H         LINE#         758
  C:3049H         LINE#         759
  C:3049H         LINE#         760
  C:304BH         LINE#         761
  C:304DH         LINE#         763
  C:304DH         LINE#         764
  C:3052H         LINE#         765
  C:3052H         LINE#         766
  C:3057H         LINE#         767
  C:3057H         LINE#         769
  C:3075H         LINE#         770
  C:3075H         LINE#         771
  C:30E1H         LINE#         772
  C:30E1H         LINE#         773
  C:30E7H         LINE#         774
  C:30E7H         LINE#         775
  C:30EDH         LINE#         776
  C:30F2H         LINE#         777
BL51 BANKED LINKER/LOCATER V6.22.2.0                                                  07/13/2018  15:19:21  PAGE 71


  C:30F2H         LINE#         778
  C:30F8H         LINE#         779
  C:30FBH         LINE#         780
  C:3106H         LINE#         781
  C:3107H         LINE#         782
  C:3107H         LINE#         783
  C:310AH         LINE#         785
  C:310AH         LINE#         786
  C:310CH         LINE#         787
  C:310EH         LINE#         788
  C:3111H         LINE#         789
  C:3111H         LINE#         790
  C:3117H         LINE#         791
  C:311BH         LINE#         792
  C:3167H         LINE#         793
  C:3167H         LINE#         794
  C:316FH         LINE#         795
  C:316FH         LINE#         796
  C:3175H         LINE#         797
  C:3175H         LINE#         798
  C:317DH         LINE#         799
  C:317FH         LINE#         800
  C:317FH         LINE#         801
  C:3181H         LINE#         802
  C:3192H         LINE#         803
  C:3192H         LINE#         804
  C:3194H         LINE#         805
  C:3196H         LINE#         806
  C:3198H         LINE#         807
  C:3198H         LINE#         808
  C:319AH         LINE#         810
  C:319AH         LINE#         811
  C:319FH         LINE#         812
  C:319FH         LINE#         813
  C:31A1H         LINE#         857
  C:31A1H         LINE#         858
  C:31A6H         LINE#         859
  C:31B1H         LINE#         860
  C:31B1H         LINE#         861
  C:31B3H         LINE#         862
  C:31B5H         LINE#         863
  C:31B7H         LINE#         864
  C:31D4H         LINE#         865
  C:31D4H         LINE#         867
  C:31D6H         LINE#         868
  C:31DBH         LINE#         869
  C:31DBH         LINE#         870
  C:31DBH         LINE#         871
  C:31DBH         LINE#         873
  C:31E9H         LINE#         874
  C:31E9H         LINE#         875
  C:31F6H         LINE#         876
  C:31F6H         LINE#         877
  C:31F8H         LINE#         878
  C:31FEH         LINE#         879
  C:3200H         LINE#         880
  C:3205H         LINE#         881
BL51 BANKED LINKER/LOCATER V6.22.2.0                                                  07/13/2018  15:19:21  PAGE 72


  C:3207H         LINE#         882
  C:320DH         LINE#         883
  C:320DH         LINE#         884
  C:3213H         LINE#         885
  C:3213H         LINE#         886
  C:3215H         LINE#         888
  C:3215H         LINE#         889
  C:321AH         LINE#         890
  C:321AH         LINE#         892
  C:3228H         LINE#         893
  C:3228H         LINE#         894
  C:3235H         LINE#         895
  C:3235H         LINE#         896
  C:3237H         LINE#         897
  C:323DH         LINE#         898
  C:323FH         LINE#         899
  C:3244H         LINE#         900
  C:3244H         LINE#         901
  C:324AH         LINE#         902
  C:324AH         LINE#         903
  C:3250H         LINE#         904
  C:3250H         LINE#         905
  C:3251H         LINE#         907
  C:3251H         LINE#         908
  C:3256H         LINE#         909
  C:3256H         LINE#         910
  -------         ENDPROC       USERCONSUMEROPERATION
  -------         ENDMOD        MOTION

  -------         MODULE        PROGRAM
  C:0000H         SYMBOL        _ICE_DUMMY_
  D:0080H         PUBLIC        P0
  D:0090H         PUBLIC        P1
  D:00A0H         PUBLIC        P2
  D:00B0H         PUBLIC        P3
  D:00C0H         PUBLIC        P4
  D:00C8H         PUBLIC        P5
  D:00A8H         PUBLIC        IE
  D:00F8H         PUBLIC        RSTFR
  D:0098H         PUBLIC        SCON
  D:0088H         PUBLIC        TCON
  D:00B8H         PUBLIC        IE1
  C:5B7AH         PUBLIC        ProgModeKeys
  D:00D0H         PUBLIC        PSW
  -------         PROC          PROGMODEKEYS
  C:5B7AH         LINE#         9
  C:5B7AH         LINE#         10
  C:5B7AH         LINE#         11
  C:5B7DH         LINE#         13
  C:5B97H         LINE#         14
  C:5B97H         LINE#         15
  C:5B99H         LINE#         16
  C:5BBBH         LINE#         17
  C:5BBBH         LINE#         18
  C:5BBBH         LINE#         19
  C:5BBBH         LINE#         20
  C:5BC0H         LINE#         21
BL51 BANKED LINKER/LOCATER V6.22.2.0                                                  07/13/2018  15:19:21  PAGE 73


  C:5BC6H         LINE#         22
  C:5BCEH         LINE#         23
  C:5BD1H         LINE#         24
  C:5BD2H         LINE#         25
  C:5BD2H         LINE#         26
  C:5BDAH         LINE#         27
  C:5BDAH         LINE#         28
  C:5BEAH         LINE#         29
  C:5BEAH         LINE#         30
  C:5BEDH         LINE#         31
  C:5BF1H         LINE#         32
  C:5BF1H         LINE#         33
  C:5BF3H         LINE#         34
  C:5BFBH         LINE#         35
  C:5BFBH         LINE#         36
  C:5C08H         LINE#         37
  C:5C08H         LINE#         38
  C:5C0BH         LINE#         39
  C:5C0FH         LINE#         40
  C:5C0FH         LINE#         41
  C:5C11H         LINE#         42
  C:5C19H         LINE#         43
  C:5C19H         LINE#         44
  C:5C26H         LINE#         45
  C:5C26H         LINE#         46
  C:5C29H         LINE#         47
  C:5C2DH         LINE#         48
  C:5C2DH         LINE#         49
  C:5C2FH         LINE#         50
  C:5C37H         LINE#         51
  C:5C37H         LINE#         52
  C:5C44H         LINE#         53
  C:5C44H         LINE#         54
  C:5C48H         LINE#         55
  C:5C52H         LINE#         56
  C:5C55H         LINE#         57
  C:5C61H         LINE#         58
  C:5C61H         LINE#         59
  C:5C63H         LINE#         60
  C:5C6BH         LINE#         61
  C:5C6BH         LINE#         62
  C:5C76H         LINE#         63
  C:5C78H         LINE#         64
  C:5C78H         LINE#         65
  C:5C7AH         LINE#         66
  C:5C7BH         LINE#         67
  C:5C7BH         LINE#         68
  C:5C83H         LINE#         69
  C:5C83H         LINE#         70
  C:5C93H         LINE#         71
  C:5C93H         LINE#         72
  C:5C96H         LINE#         73
  C:5C9AH         LINE#         74
  C:5C9AH         LINE#         75
  C:5C9CH         LINE#         76
  C:5CA4H         LINE#         77
  C:5CA4H         LINE#         78
BL51 BANKED LINKER/LOCATER V6.22.2.0                                                  07/13/2018  15:19:21  PAGE 74


  C:5CB1H         LINE#         79
  C:5CB1H         LINE#         80
  C:5CB4H         LINE#         81
  C:5CB8H         LINE#         82
  C:5CB8H         LINE#         83
  C:5CBAH         LINE#         84
  C:5CC2H         LINE#         85
  C:5CC2H         LINE#         86
  C:5CCFH         LINE#         87
  C:5CCFH         LINE#         88
  C:5CD2H         LINE#         89
  C:5CD6H         LINE#         90
  C:5CD6H         LINE#         91
  C:5CD8H         LINE#         92
  C:5CE0H         LINE#         93
  C:5CE0H         LINE#         94
  C:5CEDH         LINE#         95
  C:5CEDH         LINE#         96
  C:5CF1H         LINE#         97
  C:5CFBH         LINE#         98
  C:5CFEH         LINE#         99
  C:5D0AH         LINE#         100
  C:5D0AH         LINE#         101
  C:5D0CH         LINE#         102
  C:5D14H         LINE#         103
  C:5D14H         LINE#         104
  C:5D1FH         LINE#         105
  C:5D21H         LINE#         106
  C:5D21H         LINE#         107
  C:5D23H         LINE#         108
  C:5D24H         LINE#         109
  C:5D24H         LINE#         110
  C:5D24H         LINE#         111
  C:5D29H         LINE#         112
  C:5D2BH         LINE#         113
  C:5D30H         LINE#         114
  C:5D36H         LINE#         115
  C:5D36H         LINE#         116
  C:5D36H         LINE#         117
  C:5D36H         LINE#         118
  -------         ENDPROC       PROGMODEKEYS
  -------         ENDMOD        PROGRAM

  -------         MODULE        RC
  C:0000H         SYMBOL        _ICE_DUMMY_
  D:0080H         PUBLIC        P0
  D:0090H         PUBLIC        P1
  D:00A0H         PUBLIC        P2
  D:00B0H         PUBLIC        P3
  X:03B8H         SYMBOL        rcBitCount
  X:03BAH         SYMBOL        rcTimerPre
  D:00C0H         PUBLIC        P4
  D:00C8H         PUBLIC        P5
  D:00A8H         PUBLIC        IE
  D:00F8H         PUBLIC        RSTFR
  X:03BCH         SYMBOL        rcKeyId
  D:0098H         PUBLIC        SCON
BL51 BANKED LINKER/LOCATER V6.22.2.0                                                  07/13/2018  15:19:21  PAGE 75


  C:4AB3H         PUBLIC        INT1_Rpt
  D:0088H         PUBLIC        TCON
  C:7AFAH         PUBLIC        rcCheck
  D:00B8H         PUBLIC        IE1
  X:03BEH         SYMBOL        rcRepeatCount
  C:79ACH         PUBLIC        TIMER0_Rpt
  X:03C0H         SYMBOL        rcData
  X:03C4H         SYMBOL        rcState
  X:03C6H         SYMBOL        rcTimer
  X:03C8H         SYMBOL        rcTemp
  B:0023H.6       SYMBOL        rcEnd
  D:00D0H         PUBLIC        PSW
  -------         PROC          RCCHECK
  -------         DO            
  D:0006H         SYMBOL        keyid
  -------         ENDDO         
  C:7AFAH         LINE#         19
  C:7AFAH         LINE#         20
  C:7AFAH         LINE#         21
  C:7AFDH         LINE#         22
  C:7B08H         LINE#         23
  C:7B08H         LINE#         24
  C:7B09H         LINE#         25
  C:7B09H         LINE#         26
  C:7B28H         LINE#         27
  C:7B28H         LINE#         28
  C:7B2CH         LINE#         29
  C:7B2EH         LINE#         30
  C:7B39H         LINE#         31
  C:7B39H         LINE#         32
  C:7B47H         LINE#         33
  C:7B49H         LINE#         35
  C:7B49H         LINE#         36
  C:7B4DH         LINE#         37
  C:7B4DH         LINE#         40
  C:7B54H         LINE#         41
  C:7B58H         LINE#         42
  C:7B5AH         LINE#         43
  C:7B60H         LINE#         44
  C:7B64H         LINE#         45
  C:7B68H         LINE#         46
  C:7B68H         LINE#         47
  -------         ENDPROC       RCCHECK
  -------         PROC          INT1_RPT
  C:4AB3H         LINE#         49
  C:4ACEH         LINE#         51
  C:4AD9H         LINE#         52
  C:4AD9H         LINE#         53
  C:4AE0H         LINE#         54
  C:4AE2H         LINE#         55
  C:4AE3H         LINE#         56
  C:4AE6H         LINE#         57
  C:4B0CH         LINE#         58
  C:4B0CH         LINE#         60
  C:4B15H         LINE#         61
  C:4B1FH         LINE#         62
  C:4B22H         LINE#         63
BL51 BANKED LINKER/LOCATER V6.22.2.0                                                  07/13/2018  15:19:21  PAGE 76


  C:4B25H         LINE#         64
  C:4B54H         LINE#         65
  C:4B54H         LINE#         67
  C:4B6DH         LINE#         68
  C:4B85H         LINE#         69
  C:4B85H         LINE#         70
  C:4B9CH         LINE#         71
  C:4B9CH         LINE#         72
  C:4BAAH         LINE#         73
  C:4BBEH         LINE#         74
  C:4BBEH         LINE#         75
  C:4BC7H         LINE#         76
  C:4BC7H         LINE#         77
  C:4BC9H         LINE#         78
  C:4BE7H         LINE#         79
  C:4BE7H         LINE#         80
  C:4BEBH         LINE#         81
  C:4BF3H         LINE#         82
  C:4BF5H         LINE#         83
  C:4C1BH         LINE#         84
  C:4C1BH         LINE#         85
  C:4C24H         LINE#         86
  C:4C32H         LINE#         87
  C:4C34H         LINE#         89
  C:4C34H         LINE#         90
  C:4C3BH         LINE#         91
  C:4C3BH         LINE#         92
  C:4C4AH         LINE#         94
  C:4C5EH         LINE#         95
  C:4C5EH         LINE#         96
  C:4C76H         LINE#         97
  C:4C8EH         LINE#         98
  C:4CA6H         LINE#         99
  C:4CBAH         LINE#         101
  C:4CC4H         LINE#         102
  C:4CCBH         LINE#         103
  C:4CD2H         LINE#         105
  C:4CDDH         LINE#         106
  C:4CDDH         LINE#         107
  C:4D0FH         LINE#         108
  C:4D0FH         LINE#         109
  C:4D0FH         LINE#         110
  C:4D0FH         LINE#         111
  C:4D18H         LINE#         112
  C:4D1AH         LINE#         113
  C:4D1AH         LINE#         114
  C:4D1AH         LINE#         115
  C:4D22H         LINE#         116
  C:4D24H         LINE#         117
  C:4D24H         LINE#         118
  C:4D24H         LINE#         119
  C:4D2DH         LINE#         120
  C:4D2FH         LINE#         121
  C:4D2FH         LINE#         122
  C:4D2FH         LINE#         123
  C:4D38H         LINE#         124
  C:4D3AH         LINE#         125
BL51 BANKED LINKER/LOCATER V6.22.2.0                                                  07/13/2018  15:19:21  PAGE 77


  C:4D3AH         LINE#         126
  C:4D3AH         LINE#         127
  C:4D43H         LINE#         128
  C:4D45H         LINE#         129
  C:4D45H         LINE#         130
  C:4D45H         LINE#         131
  C:4D4EH         LINE#         132
  C:4D50H         LINE#         133
  C:4D50H         LINE#         134
  C:4D50H         LINE#         135
  C:4D59H         LINE#         136
  C:4D59H         LINE#         137
  C:4D59H         LINE#         152
  C:4D59H         LINE#         153
  C:4D59H         LINE#         154
  -------         ENDPROC       INT1_RPT
  -------         PROC          TIMER0_RPT
  C:79ACH         LINE#         156
  C:79BBH         LINE#         158
  C:79CDH         LINE#         159
  C:79CDH         LINE#         160
  C:79DBH         LINE#         161
  C:79DBH         LINE#         163
  C:79ECH         LINE#         164
  C:79ECH         LINE#         165
  C:79FEH         LINE#         166
  C:79FEH         LINE#         167
  C:7A00H         LINE#         168
  C:7A00H         LINE#         169
  C:7A07H         LINE#         170
  C:7A0BH         LINE#         171
  C:7A0FH         LINE#         172
  C:7A0FH         LINE#         173
  -------         ENDPROC       TIMER0_RPT
  -------         ENDMOD        RC

  -------         MODULE        RUN_MODE
  C:0000H         SYMBOL        _ICE_DUMMY_
  X:0363H         PUBLIC        tutorial_state
  X:0364H         PUBLIC        runmode
  D:0080H         PUBLIC        P0
  D:0090H         PUBLIC        P1
  D:00A0H         PUBLIC        P2
  D:00B0H         PUBLIC        P3
  C:748DH         PUBLIC        run_new
  D:00C0H         PUBLIC        P4
  D:00C8H         PUBLIC        P5
  D:00A8H         PUBLIC        IE
  D:00F8H         PUBLIC        RSTFR
  X:0365H         PUBLIC        stop_dly_cnt
  X:0366H         PUBLIC        bias_arr_is_full
  X:0367H         PUBLIC        bias
  X:036BH         PUBLIC        stepdown_cnt
  X:036CH         PUBLIC        autorun_delay_sec
  C:7DD5H         PUBLIC        run_stepdown
  D:0098H         PUBLIC        SCON
  D:0088H         PUBLIC        TCON
BL51 BANKED LINKER/LOCATER V6.22.2.0                                                  07/13/2018  15:19:21  PAGE 78


  D:00B8H         PUBLIC        IE1
  X:036DH         PUBLIC        bias_idx
  X:036EH         PUBLIC        bias_arr
  C:6741H         PUBLIC        run_fixed
  X:0396H         PUBLIC        user_speed_inc
  C:7E93H         PUBLIC        run
  C:4501H         PUBLIC        run_auto
  X:0397H         PUBLIC        stepdown_flag
  D:00D0H         PUBLIC        PSW
  -------         PROC          RUN_AUTO
  -------         DO            
  X:01F2H         SYMBOL        i
  X:01F3H         SYMBOL        high_count
  X:01F4H         SYMBOL        low_count
  -------         ENDDO         
  C:4501H         LINE#         37
  C:4501H         LINE#         38
  C:4501H         LINE#         40
  C:4506H         LINE#         41
  C:4508H         LINE#         44
  C:4511H         LINE#         45
  C:4511H         LINE#         46
  C:4517H         LINE#         47
  C:4533H         LINE#         48
  C:454FH         LINE#         49
  C:45AAH         LINE#         51
  C:45D0H         LINE#         52
  C:45D8H         LINE#         53
  C:45D8H         LINE#         54
  C:45E0H         LINE#         55
  C:45E5H         LINE#         56
  C:45E5H         LINE#         58
  C:45EEH         LINE#         60
  C:45F3H         LINE#         61
  C:45F5H         LINE#         62
  C:461AH         LINE#         63
  C:461AH         LINE#         64
  C:4653H         LINE#         65
  C:468FH         LINE#         74
  C:4698H         LINE#         76
  C:46B0H         LINE#         78
  C:46B0H         LINE#         81
  C:46B5H         LINE#         82
  C:46B5H         LINE#         84
  C:46C4H         LINE#         85
  C:46DEH         LINE#         86
  C:46DEH         LINE#         92
  C:46DEH         LINE#         94
  C:46E8H         LINE#         95
  C:46F1H         LINE#         96
  C:46F1H         LINE#         97
  C:46F4H         LINE#         98
  C:46F4H         LINE#         99
  C:46F4H         LINE#         100
  C:46F9H         LINE#         101
  C:4700H         LINE#         102
  C:4700H         LINE#         104
BL51 BANKED LINKER/LOCATER V6.22.2.0                                                  07/13/2018  15:19:21  PAGE 79


  C:4700H         LINE#         106
  C:4701H         LINE#         107
  C:4720H         LINE#         109
  C:4720H         LINE#         112
  C:4725H         LINE#         113
  C:472EH         LINE#         114
  C:472EH         LINE#         115
  C:4733H         LINE#         117
  C:4741H         LINE#         118
  C:475BH         LINE#         119
  C:475BH         LINE#         125
  C:475BH         LINE#         127
  C:4770H         LINE#         128
  C:4770H         LINE#         129
  C:478BH         LINE#         131
  C:478DH         LINE#         133
  C:478DH         LINE#         134
  C:4793H         LINE#         135
  C:4793H         LINE#         136
  C:4799H         LINE#         137
  C:4799H         LINE#         139
  C:4799H         LINE#         140
  C:4799H         LINE#         141
  C:479BH         LINE#         143
  C:479BH         LINE#         144
  C:47A1H         LINE#         145
  C:47AEH         LINE#         146
  C:47AEH         LINE#         147
  C:47B3H         LINE#         148
  C:47B8H         LINE#         149
  C:47BBH         LINE#         150
  C:47C3H         LINE#         151
  C:47C3H         LINE#         152
  C:47C3H         LINE#         154
  C:47C4H         LINE#         156
  C:47C4H         LINE#         157
  C:47C9H         LINE#         158
  C:47C9H         LINE#         159
  C:47C9H         LINE#         160
  C:47CBH         LINE#         162
  C:47CBH         LINE#         163
  C:47D0H         LINE#         164
  C:47D5H         LINE#         165
  C:47DBH         LINE#         166
  C:47E3H         LINE#         167
  C:47E8H         LINE#         168
  C:47E8H         LINE#         169
  -------         ENDPROC       RUN_AUTO
  -------         PROC          RUN_FIXED
  C:6741H         LINE#         171
  C:6741H         LINE#         172
  C:6741H         LINE#         173
  C:67A3H         LINE#         174
  C:67ACH         LINE#         175
  C:67ACH         LINE#         176
  C:67B2H         LINE#         199
  C:67B2H         LINE#         201
BL51 BANKED LINKER/LOCATER V6.22.2.0                                                  07/13/2018  15:19:21  PAGE 80


  C:67C0H         LINE#         202
  C:67C0H         LINE#         203
  C:67C6H         LINE#         204
  C:67CFH         LINE#         205
  C:67CFH         LINE#         206
  C:67D1H         LINE#         207
  C:67E4H         LINE#         208
  C:67E4H         LINE#         209
  C:67EAH         LINE#         210
  C:67ECH         LINE#         212
  C:67ECH         LINE#         213
  C:67F4H         LINE#         214
  C:67F4H         LINE#         215
  C:67F4H         LINE#         216
  C:67F4H         LINE#         217
  C:67F6H         LINE#         218
  C:6804H         LINE#         219
  C:6804H         LINE#         220
  C:680AH         LINE#         221
  C:6814H         LINE#         222
  C:6814H         LINE#         223
  C:6816H         LINE#         224
  C:6827H         LINE#         225
  C:6827H         LINE#         226
  C:682DH         LINE#         227
  C:682FH         LINE#         229
  C:682FH         LINE#         230
  C:6837H         LINE#         231
  C:6837H         LINE#         232
  C:683EH         LINE#         233
  C:683EH         LINE#         234
  C:683EH         LINE#         236
  C:6843H         LINE#         237
  C:6843H         LINE#         238
  C:6844H         LINE#         240
  C:6844H         LINE#         241
  C:6849H         LINE#         242
  C:684EH         LINE#         243
  C:6854H         LINE#         244
  C:685CH         LINE#         245
  C:685CH         LINE#         246
  -------         ENDPROC       RUN_FIXED
  -------         PROC          RUN_NEW
  C:748DH         LINE#         250
  C:748DH         LINE#         251
  C:748DH         LINE#         252
  C:74BBH         LINE#         253
  C:74BBH         LINE#         254
  C:74BBH         LINE#         255
  C:74C1H         LINE#         256
  C:74C7H         LINE#         257
  C:74C7H         LINE#         258
  C:74C9H         LINE#         259
  C:74C9H         LINE#         260
  C:74CEH         LINE#         261
  C:74D4H         LINE#         262
  C:74D5H         LINE#         263
BL51 BANKED LINKER/LOCATER V6.22.2.0                                                  07/13/2018  15:19:21  PAGE 81


  C:74D5H         LINE#         264
  C:74DDH         LINE#         265
  C:74DDH         LINE#         266
  C:74E0H         LINE#         267
  C:74E0H         LINE#         268
  C:74E0H         LINE#         269
  C:74E2H         LINE#         270
  C:74E2H         LINE#         271
  C:74E8H         LINE#         272
  C:74EBH         LINE#         273
  C:74EBH         LINE#         274
  C:74EBH         LINE#         275
  C:74F1H         LINE#         276
  C:74F2H         LINE#         277
  C:74F2H         LINE#         278
  C:74F2H         LINE#         279
  C:74FAH         LINE#         280
  C:74FAH         LINE#         281
  C:74FDH         LINE#         282
  C:7503H         LINE#         283
  C:7509H         LINE#         284
  C:7509H         LINE#         285
  C:750CH         LINE#         286
  C:750CH         LINE#         287
  C:750CH         LINE#         288
  C:750EH         LINE#         289
  C:751AH         LINE#         290
  C:751FH         LINE#         291
  C:751FH         LINE#         292
  C:751FH         LINE#         293
  -------         ENDPROC       RUN_NEW
  -------         PROC          RUN_STEPDOWN
  C:7DD5H         LINE#         295
  C:7DD5H         LINE#         296
  C:7DD5H         LINE#         297
  C:7DE2H         LINE#         298
  C:7DE2H         LINE#         299
  C:7DEEH         LINE#         300
  C:7DEEH         LINE#         301
  C:7DFBH         LINE#         302
  C:7DFBH         LINE#         303
  C:7E04H         LINE#         304
  C:7E04H         LINE#         305
  C:7E08H         LINE#         306
  C:7E0AH         LINE#         308
  C:7E0AH         LINE#         309
  C:7E0EH         LINE#         310
  C:7E0EH         LINE#         311
  C:7E15H         LINE#         312
  C:7E15H         LINE#         313
  C:7E1AH         LINE#         314
  C:7E1BH         LINE#         321
  C:7E1BH         LINE#         322
  C:7E28H         LINE#         323
  C:7E28H         LINE#         324
  C:7E2EH         LINE#         325
  C:7E2FH         LINE#         327
BL51 BANKED LINKER/LOCATER V6.22.2.0                                                  07/13/2018  15:19:21  PAGE 82


  C:7E2FH         LINE#         328
  C:7E35H         LINE#         329
  C:7E35H         LINE#         330
  C:7E35H         LINE#         331
  -------         ENDPROC       RUN_STEPDOWN
  -------         PROC          RUN
  C:7E93H         LINE#         333
  C:7E93H         LINE#         334
  C:7E93H         LINE#         335
  C:7EA1H         LINE#         336
  C:7EA1H         LINE#         337
  C:7EA4H         LINE#         338
  C:7EA4H         LINE#         339
  C:7EAAH         LINE#         340
  C:7EAAH         LINE#         341
  C:7EADH         LINE#         342
  C:7EADH         LINE#         343
  C:7EB5H         LINE#         344
  C:7EB5H         LINE#         345
  C:7EB5H         LINE#         346
  C:7EB7H         LINE#         347
  C:7EBFH         LINE#         348
  C:7EBFH         LINE#         349
  C:7EC4H         LINE#         350
  C:7ECAH         LINE#         351
  C:7ED2H         LINE#         352
  C:7ED8H         LINE#         353
  C:7ED9H         LINE#         354
  C:7EE1H         LINE#         355
  C:7EE1H         LINE#         356
  C:7EE4H         LINE#         357
  C:7EE4H         LINE#         358
  C:7EECH         LINE#         359
  C:7EECH         LINE#         360
  C:7EEFH         LINE#         361
  C:7EEFH         LINE#         362
  -------         ENDPROC       RUN
  -------         ENDMOD        RUN_MODE

  -------         MODULE        SENSOR
  C:0000H         SYMBOL        _ICE_DUMMY_
  D:0080H         PUBLIC        P0
  D:0090H         PUBLIC        P1
  D:00A0H         PUBLIC        P2
  D:00B0H         PUBLIC        P3
  D:00C0H         PUBLIC        P4
  D:00C8H         PUBLIC        P5
  X:025CH         PUBLIC        tension
  C:4D72H         PUBLIC        HX711_Weight
  X:0260H         PUBLIC        tension_bias
  X:0264H         SYMBOL        disconnect_cnt1
  X:0265H         SYMBOL        disconnect_cnt2
  C:5030H         SYMBOL        adjust_drift
  B:0023H.7       PUBLIC        flag_sensor_may_reverted
  X:0266H         SYMBOL        sensor_release_cnt
  D:00A8H         PUBLIC        IE
  B:0090H.2       PUBLIC        P1_2
BL51 BANKED LINKER/LOCATER V6.22.2.0                                                  07/13/2018  15:19:21  PAGE 83


  D:00F8H         PUBLIC        RSTFR
  C:6095H         SYMBOL        _get_median
  B:0090H.3       PUBLIC        P1_3
  B:0090H.4       PUBLIC        P1_4
  B:00C8H.3       PUBLIC        P5_3
  X:0267H         PUBLIC        tension_orig
  X:026BH         SYMBOL        drift
  X:026FH         SYMBOL        all_display_on_cnt_old
  X:0270H         SYMBOL        array
  X:0284H         SYMBOL        tension_old
  X:0288H         SYMBOL        tension_ini
  C:5767H         PUBLIC        calc_disconnect
  X:028CH         SYMBOL        filter_cnt
  X:028DH         SYMBOL        drift_abs
  D:0098H         PUBLIC        SCON
  D:0088H         PUBLIC        TCON
  X:0291H         PUBLIC        tension2
  X:0295H         PUBLIC        tension2_bias
  D:00B8H         PUBLIC        IE1
  X:0299H         PUBLIC        flag_Gsensor_disconnected
  X:029AH         SYMBOL        drift_cnt
  X:029BH         SYMBOL        array_idx
  C:7520H         SYMBOL        HX711_Read1
  C:75B0H         SYMBOL        HX711_Read2
  X:029CH         PUBLIC        tension2_orig
  X:02A0H         SYMBOL        drift2
  C:5990H         SYMBOL        do_drift
  X:02A4H         SYMBOL        array2
  X:02B8H         SYMBOL        sensor_press_cnt
  X:02B9H         SYMBOL        tension2_old
  X:02BDH         SYMBOL        tension2_ini
  X:02C1H         SYMBOL        filter_cnt2
  X:02C2H         SYMBOL        drift2_abs
  X:02C6H         PUBLIC        no_current_cnt
  C:85EFH         SYMBOL        Delay__hx711_us
  D:00D0H         PUBLIC        PSW
  -------         PROC          L?0089
  -------         ENDPROC       L?0089
  -------         PROC          DELAY__HX711_US
  C:85EFH         LINE#         66
  C:85EFH         LINE#         67
  C:85EFH         LINE#         68
  C:85F0H         LINE#         69
  C:85F1H         LINE#         70
  -------         ENDPROC       DELAY__HX711_US
  -------         PROC          HX711_READ1
  -------         DO            
  X:01F6H         SYMBOL        count
  D:0003H         SYMBOL        i
  -------         ENDDO         
  C:7520H         LINE#         99
  C:7520H         LINE#         100
  C:7520H         LINE#         101
  C:75AFH         LINE#         102
  -------         ENDPROC       HX711_READ1
  -------         PROC          HX711_READ2
  -------         DO            
BL51 BANKED LINKER/LOCATER V6.22.2.0                                                  07/13/2018  15:19:21  PAGE 84


  X:01F6H         SYMBOL        count
  D:0003H         SYMBOL        i
  -------         ENDDO         
  C:75B0H         LINE#         104
  C:75B0H         LINE#         105
  C:75B0H         LINE#         106
  C:763FH         LINE#         107
  -------         ENDPROC       HX711_READ2
  -------         PROC          _GET_MEDIAN
  D:0001H         SYMBOL        data_array
  -------         DO            
  X:01F6H         SYMBOL        sens_data
  X:020AH         SYMBOL        i
  X:020BH         SYMBOL        k
  X:020CH         SYMBOL        m
  -------         ENDDO         
  C:6095H         LINE#         110
  C:6095H         LINE#         111
  C:6095H         LINE#         115
  C:60A2H         LINE#         117
  C:60B7H         LINE#         118
  C:60B7H         LINE#         119
  C:60D1H         LINE#         120
  C:60D1H         LINE#         121
  C:610CH         LINE#         122
  C:6114H         LINE#         123
  C:611CH         LINE#         124
  C:612AH         LINE#         125
  C:612AH         LINE#         126
  C:6176H         LINE#         127
  C:61C5H         LINE#         128
  C:6214H         LINE#         129
  C:6214H         LINE#         130
  C:621DH         LINE#         131
  C:6239H         LINE#         132
  -------         ENDPROC       _GET_MEDIAN
  -------         PROC          HX711_WEIGHT
  -------         DO            
  X:01EEH         SYMBOL        hx711_wt1
  X:01F2H         SYMBOL        hx711_wt2
  -------         ENDDO         
  C:4D72H         LINE#         159
  C:4D72H         LINE#         160
  C:4D72H         LINE#         161
  C:4D7BH         LINE#         162
  C:4D84H         LINE#         163
  C:4DBEH         LINE#         164
  C:4DBEH         LINE#         167
  C:4DBEH         LINE#         168
  C:4DDBH         LINE#         169
  C:4DF8H         LINE#         171
  C:4E1BH         LINE#         172
  C:4E3AH         LINE#         173
  C:4E4DH         LINE#         174
  C:4E53H         LINE#         175
  C:4E60H         LINE#         176
  C:4E60H         LINE#         177
BL51 BANKED LINKER/LOCATER V6.22.2.0                                                  07/13/2018  15:19:21  PAGE 85


  C:4E63H         LINE#         179
  C:4E77H         LINE#         180
  C:4E8BH         LINE#         184
  C:4E9AH         LINE#         185
  C:4EA9H         LINE#         192
  C:4EB6H         LINE#         193
  C:4EB6H         LINE#         194
  C:4EE4H         LINE#         195
  C:4F12H         LINE#         196
  C:4F18H         LINE#         197
  C:4F1BH         LINE#         198
  C:4F2EH         LINE#         199
  C:4F2EH         LINE#         200
  C:4F52H         LINE#         201
  C:4F74H         LINE#         203
  C:4F88H         LINE#         204
  C:4F99H         LINE#         205
  C:4F9BH         LINE#         207
  C:4F9BH         LINE#         208
  C:4FCCH         LINE#         209
  C:4FFDH         LINE#         210
  C:4FFDH         LINE#         212
  C:5005H         LINE#         214
  C:5010H         LINE#         215
  C:5010H         LINE#         216
  C:5013H         LINE#         217
  C:5013H         LINE#         218
  C:5015H         LINE#         220
  C:5015H         LINE#         221
  C:501FH         LINE#         222
  C:5029H         LINE#         223
  C:5029H         LINE#         225
  C:502CH         LINE#         226
  C:502CH         LINE#         227
  C:502FH         LINE#         228
  C:502FH         LINE#         229
  -------         ENDPROC       HX711_WEIGHT
  -------         PROC          CALC_DISCONNECT
  C:5767H         LINE#         231
  C:5767H         LINE#         232
  C:5767H         LINE#         233
  C:584EH         LINE#         237
  C:584EH         LINE#         238
  C:585EH         LINE#         239
  C:5860H         LINE#         241
  C:5860H         LINE#         242
  C:5865H         LINE#         243
  C:5865H         LINE#         245
  C:594CH         LINE#         249
  C:594CH         LINE#         250
  C:595CH         LINE#         251
  C:595EH         LINE#         253
  C:595EH         LINE#         254
  C:5963H         LINE#         255
  C:5963H         LINE#         257
  C:5968H         LINE#         258
  C:5975H         LINE#         259
BL51 BANKED LINKER/LOCATER V6.22.2.0                                                  07/13/2018  15:19:21  PAGE 86


  C:5975H         LINE#         260
  C:597BH         LINE#         261
  C:597BH         LINE#         262
  C:5988H         LINE#         263
  C:5988H         LINE#         264
  C:598FH         LINE#         265
  C:598FH         LINE#         266
  -------         ENDPROC       CALC_DISCONNECT
  -------         PROC          DO_DRIFT
  -------         DO            
  D:0007H         SYMBOL        drift_interval
  -------         ENDDO         
  C:5990H         LINE#         268
  C:5990H         LINE#         269
  C:5990H         LINE#         272
  C:59F7H         LINE#         273
  C:5A5EH         LINE#         275
  C:5A9DH         LINE#         276
  C:5A9DH         LINE#         277
  C:5AA3H         LINE#         278
  C:5AD1H         LINE#         279
  C:5AFFH         LINE#         280
  C:5B01H         LINE#         282
  C:5B01H         LINE#         283
  C:5B06H         LINE#         284
  C:5B10H         LINE#         285
  C:5B1AH         LINE#         286
  C:5B1AH         LINE#         288
  C:5B2FH         LINE#         290
  C:5B44H         LINE#         291
  C:5B44H         LINE#         292
  C:5B58H         LINE#         293
  C:5B6CH         LINE#         294
  C:5B71H         LINE#         295
  C:5B75H         LINE#         296
  C:5B79H         LINE#         297
  C:5B79H         LINE#         298
  -------         ENDPROC       DO_DRIFT
  -------         PROC          ADJUST_DRIFT
  C:5030H         LINE#         300
  C:5030H         LINE#         301
  C:5030H         LINE#         310
  C:5059H         LINE#         311
  C:5059H         LINE#         321
  C:5069H         LINE#         322
  C:506BH         LINE#         324
  C:506BH         LINE#         325
  C:5070H         LINE#         326
  C:5070H         LINE#         328
  C:50A4H         LINE#         329
  C:50A4H         LINE#         330
  C:50B3H         LINE#         331
  C:50B5H         LINE#         333
  C:50B5H         LINE#         334
  C:50BAH         LINE#         335
  C:50BAH         LINE#         337
  C:50D6H         LINE#         338
BL51 BANKED LINKER/LOCATER V6.22.2.0                                                  07/13/2018  15:19:21  PAGE 87


  C:50D6H         LINE#         339
  C:513FH         LINE#         340
  C:513FH         LINE#         341
  C:514FH         LINE#         342
  C:5151H         LINE#         344
  C:5151H         LINE#         345
  C:5156H         LINE#         346
  C:5156H         LINE#         348
  C:5166H         LINE#         349
  C:5166H         LINE#         350
  C:517AH         LINE#         351
  C:518EH         LINE#         352
  C:5190H         LINE#         353
  C:5195H         LINE#         354
  C:5199H         LINE#         355
  C:5199H         LINE#         356
  C:519AH         LINE#         358
  C:51A5H         LINE#         359
  C:51A5H         LINE#         360
  C:520EH         LINE#         361
  C:520EH         LINE#         362
  C:521EH         LINE#         363
  C:5220H         LINE#         365
  C:5220H         LINE#         366
  C:5225H         LINE#         367
  C:5225H         LINE#         369
  C:5251H         LINE#         370
  C:5251H         LINE#         371
  C:5254H         LINE#         372
  C:5254H         LINE#         373
  C:5254H         LINE#         375
  C:5254H         LINE#         376
  C:5279H         LINE#         379
  C:527CH         LINE#         381
  C:5289H         LINE#         382
  C:5289H         LINE#         383
  C:529DH         LINE#         384
  C:52B1H         LINE#         385
  C:52B6H         LINE#         386
  C:52BAH         LINE#         387
  C:52BEH         LINE#         388
  C:52BEH         LINE#         389
  C:52BEH         LINE#         390
  -------         ENDPROC       ADJUST_DRIFT
  -------         ENDMOD        SENSOR

  -------         MODULE        TIME
  C:0000H         SYMBOL        _ICE_DUMMY_
  D:0080H         PUBLIC        P0
  D:0090H         PUBLIC        P1
  D:00A0H         PUBLIC        P2
  D:00B0H         PUBLIC        P3
  D:00C0H         PUBLIC        P4
  D:00C8H         PUBLIC        P5
  D:00A8H         PUBLIC        IE
  C:85BCH         PUBLIC        clock
  D:00F8H         PUBLIC        RSTFR
BL51 BANKED LINKER/LOCATER V6.22.2.0                                                  07/13/2018  15:19:21  PAGE 88


  X:03EFH         PUBLIC        timer_1ms
  B:00B0H.6       PUBLIC        P3_6
  X:03F0H         PUBLIC        state_tick
  D:0098H         PUBLIC        SCON
  D:0088H         PUBLIC        TCON
  C:845BH         PUBLIC        timer_proc
  D:00B8H         PUBLIC        IE1
  X:03F1H         PUBLIC        state_sec
  X:03F3H         PUBLIC        __clocks
  C:7CA6H         PUBLIC        TIMER1_Rpt
  D:00D0H         PUBLIC        PSW
  -------         PROC          CLOCK
  C:85BCH         LINE#         6
  C:85BCH         LINE#         7
  C:85BCH         LINE#         8
  C:85CAH         LINE#         9
  -------         ENDPROC       CLOCK
  -------         PROC          TIMER1_RPT
  C:7CA6H         LINE#         15
  C:7CBDH         LINE#         21
  C:7CDCH         LINE#         23
  C:7CE9H         LINE#         24
  C:7CE9H         LINE#         25
  C:7CECH         LINE#         26
  C:7CECH         LINE#         29
  C:7CEFH         LINE#         30
  C:7CEFH         LINE#         31
  C:7CF4H         LINE#         32
  C:7CF6H         LINE#         34
  C:7CF6H         LINE#         35
  C:7CF8H         LINE#         36
  C:7CF8H         LINE#         39
  -------         ENDPROC       TIMER1_RPT
  -------         PROC          TIMER_PROC
  C:845BH         LINE#         45
  C:845BH         LINE#         46
  C:845BH         LINE#         47
  C:846CH         LINE#         48
  C:846CH         LINE#         49
  C:846EH         LINE#         50
  C:847CH         LINE#         51
  C:847CH         LINE#         52
  -------         ENDPROC       TIMER_PROC
  -------         ENDMOD        TIME

  -------         MODULE        ?C?FPADD
  C:20B6H         PUBLIC        ?C?FPADD
  C:20B2H         PUBLIC        ?C?FPSUB
  -------         ENDMOD        ?C?FPADD

  -------         MODULE        ?C?FPCMP
  C:21A9H         PUBLIC        ?C?FPCMP
  C:21A7H         PUBLIC        ?C?FPCMP3
  -------         ENDMOD        ?C?FPCMP

  -------         MODULE        ?C?FCAST
  C:222AH         PUBLIC        ?C?FCASTC
BL51 BANKED LINKER/LOCATER V6.22.2.0                                                  07/13/2018  15:19:21  PAGE 89


  C:2225H         PUBLIC        ?C?FCASTI
  C:2220H         PUBLIC        ?C?FCASTL
  -------         ENDMOD        ?C?FCAST

  -------         MODULE        ?C?CASTF
  C:225EH         PUBLIC        ?C?CASTF
  -------         ENDMOD        ?C?CASTF

  -------         MODULE        PRINTF
  X:022CH         PUBLIC        ?_PRINTF?BYTE
  X:022CH         PUBLIC        ?_SPRINTF?BYTE
  C:395AH         PUBLIC        _PRINTF
  C:3954H         PUBLIC        _SPRINTF
  -------         ENDMOD        PRINTF

  -------         MODULE        VSPRINTF
  X:0223H         PUBLIC        ?_VSPRINTF?BYTE
  C:80D0H         PUBLIC        _VSPRINTF
  -------         ENDMOD        VSPRINTF

  -------         MODULE        ?C?FPROUND
  C:22DFH         PUBLIC        ?C?FPROUND
  -------         ENDMOD        ?C?FPROUND

  -------         MODULE        ?C?FPCONVERT
  C:231CH         PUBLIC        ?C?FPCONVERT
  -------         ENDMOD        ?C?FPCONVERT

  -------         MODULE        ?C?FPMUL
  C:2421H         PUBLIC        ?C?FPMUL
  -------         ENDMOD        ?C?FPMUL

  -------         MODULE        ?C?FPDIV
  C:252AH         PUBLIC        ?C?FPDIV
  -------         ENDMOD        ?C?FPDIV

  -------         MODULE        ?C?FTNPWR
  C:25F7H         PUBLIC        ?C?FTNPWR
  -------         ENDMOD        ?C?FTNPWR

  -------         MODULE        ?C?COPY
  C:2707H         PUBLIC        ?C?COPY
  -------         ENDMOD        ?C?COPY

  -------         MODULE        ?C?CLDPTR
  C:272DH         PUBLIC        ?C?CLDPTR
  -------         ENDMOD        ?C?CLDPTR

  -------         MODULE        ?C?CLDOPTR
  C:2746H         PUBLIC        ?C?CLDOPTR
  -------         ENDMOD        ?C?CLDOPTR

  -------         MODULE        ?C?CSTPTR
  C:2773H         PUBLIC        ?C?CSTPTR
  -------         ENDMOD        ?C?CSTPTR

  -------         MODULE        ?C?CSTOPTR
BL51 BANKED LINKER/LOCATER V6.22.2.0                                                  07/13/2018  15:19:21  PAGE 90


  C:2785H         PUBLIC        ?C?CSTOPTR
  -------         ENDMOD        ?C?CSTOPTR

  -------         MODULE        ?C?IMUL
  C:27A7H         PUBLIC        ?C?IMUL
  -------         ENDMOD        ?C?IMUL

  -------         MODULE        ?C?UIDIV
  C:27B9H         PUBLIC        ?C?UIDIV
  -------         ENDMOD        ?C?UIDIV

  -------         MODULE        ?C?IILDX
  C:280EH         PUBLIC        ?C?IILDX
  -------         ENDMOD        ?C?IILDX

  -------         MODULE        ?C?LMUL
  C:2824H         PUBLIC        ?C?LMUL
  -------         ENDMOD        ?C?LMUL

  -------         MODULE        ?C?ULDIV
  C:28AFH         PUBLIC        ?C?ULDIV
  -------         ENDMOD        ?C?ULDIV

  -------         MODULE        ?C?SLDIV
  C:8237H         PUBLIC        ?C?SLDIV
  -------         ENDMOD        ?C?SLDIV

  -------         MODULE        ?C?LNEG
  C:2941H         PUBLIC        ?C?LNEG
  -------         ENDMOD        ?C?LNEG

  -------         MODULE        ?C?SLCMP
  C:294FH         PUBLIC        ?C?SLCMP
  -------         ENDMOD        ?C?SLCMP

  -------         MODULE        ?C?ULCMP
  C:2965H         PUBLIC        ?C?ULCMP
  -------         ENDMOD        ?C?ULCMP

  -------         MODULE        ?C?ULSHR
  C:2976H         PUBLIC        ?C?ULSHR
  -------         ENDMOD        ?C?ULSHR

  -------         MODULE        ?C?LSHL
  C:2989H         PUBLIC        ?C?LSHL
  -------         ENDMOD        ?C?LSHL

  -------         MODULE        ?C?LSTXDATA
  C:299CH         PUBLIC        ?C?LSTXDATA
  -------         ENDMOD        ?C?LSTXDATA

  -------         MODULE        ?C?LSTKXDATA
  C:29A8H         PUBLIC        ?C?LSTKXDATA
  -------         ENDMOD        ?C?LSTKXDATA

  -------         MODULE        ?C?PLDIXDATA
  C:29D9H         PUBLIC        ?C?PLDIXDATA
BL51 BANKED LINKER/LOCATER V6.22.2.0                                                  07/13/2018  15:19:21  PAGE 91


  -------         ENDMOD        ?C?PLDIXDATA

  -------         MODULE        ?C?PSTXDATA
  C:29F0H         PUBLIC        ?C?PSTXDATA
  -------         ENDMOD        ?C?PSTXDATA

  -------         MODULE        ?C?CCASE
  C:29F9H         PUBLIC        ?C?CCASE
  -------         ENDMOD        ?C?CCASE

  -------         MODULE        ?C?ICASE
  C:2A1FH         PUBLIC        ?C?ICASE
  -------         ENDMOD        ?C?ICASE

  -------         MODULE        ?C?LIMUL
  C:2A4CH         PUBLIC        ?C?LIMUL
  -------         ENDMOD        ?C?LIMUL

  -------         MODULE        PUTCHAR
  C:83E9H         PUBLIC        _PUTCHAR
  -------         ENDMOD        PUTCHAR

  -------         MODULE        ISDIGIT
  C:85CBH         PUBLIC        _isdigit
  -------         ENDMOD        ISDIGIT

  -------         MODULE        STRNCMP
  X:01FCH         PUBLIC        ?_strncmp?BYTE
  C:76CBH         PUBLIC        _strncmp
  -------         ENDMOD        STRNCMP

  -------         MODULE        ?C?STRCPY
  C:2B45H         PUBLIC        ?C?STRCPY
  -------         ENDMOD        ?C?STRCPY

  -------         MODULE        STRLEN
  C:856FH         PUBLIC        _STRLEN
  -------         ENDMOD        STRLEN

  -------         MODULE        STRCHR
  C:84BAH         PUBLIC        _STRCHR
  -------         ENDMOD        STRCHR

  -------         MODULE        STRSTR
  X:01F9H         PUBLIC        ?_strstr?BYTE
  C:714EH         PUBLIC        _strstr
  -------         ENDMOD        STRSTR

  -------         MODULE        ATOL
  C:696BH         PUBLIC        _atol
  -------         ENDMOD        ATOL

  -------         MODULE        ATOI
  C:6D48H         PUBLIC        _atoi
  -------         ENDMOD        ATOI

  -------         MODULE        ?C?MEMSET
BL51 BANKED LINKER/LOCATER V6.22.2.0                                                  07/13/2018  15:19:21  PAGE 92


  C:2B62H         PUBLIC        ?C?MEMSET
  -------         ENDMOD        ?C?MEMSET

  -------         MODULE        ?C?ILDIX
  C:2B8EH         PUBLIC        ?C?ILDIX
  -------         ENDMOD        ?C?ILDIX

  -------         MODULE        ISSPACE
  C:8584H         PUBLIC        _isspace
  -------         ENDMOD        ISSPACE

Program Size: data=18.0 xdata=1025 code=34279
LINK/LOCATE RUN COMPLETE.  0 WARNING(S),  0 ERROR(S)
